
bomb:     file format elf32-i386


Disassembly of section .init:

0000090c <_init>:
 90c:	53                   	push   %ebx
 90d:	83 ec 08             	sub    $0x8,%esp
 910:	e8 6b 02 00 00       	call   b80 <__x86.get_pc_thunk.bx>
 915:	81 c3 eb 46 00 00    	add    $0x46eb,%ebx
 91b:	8b 83 e8 ff ff ff    	mov    -0x18(%ebx),%eax
 921:	85 c0                	test   %eax,%eax
 923:	74 05                	je     92a <_init+0x1e>
 925:	e8 0e 02 00 00       	call   b38 <__ctype_b_loc@plt+0x18>
 92a:	83 c4 08             	add    $0x8,%esp
 92d:	5b                   	pop    %ebx
 92e:	c3                   	ret    

Disassembly of section .plt:

00000930 <strcmp@plt-0x10>:
 930:	ff b3 04 00 00 00    	pushl  0x4(%ebx)
 936:	ff a3 08 00 00 00    	jmp    *0x8(%ebx)
 93c:	00 00                	add    %al,(%eax)
	...

00000940 <strcmp@plt>:
 940:	ff a3 0c 00 00 00    	jmp    *0xc(%ebx)
 946:	68 00 00 00 00       	push   $0x0
 94b:	e9 e0 ff ff ff       	jmp    930 <_init+0x24>

00000950 <read@plt>:
 950:	ff a3 10 00 00 00    	jmp    *0x10(%ebx)
 956:	68 08 00 00 00       	push   $0x8
 95b:	e9 d0 ff ff ff       	jmp    930 <_init+0x24>

00000960 <printf@plt>:
 960:	ff a3 14 00 00 00    	jmp    *0x14(%ebx)
 966:	68 10 00 00 00       	push   $0x10
 96b:	e9 c0 ff ff ff       	jmp    930 <_init+0x24>

00000970 <fflush@plt>:
 970:	ff a3 18 00 00 00    	jmp    *0x18(%ebx)
 976:	68 18 00 00 00       	push   $0x18
 97b:	e9 b0 ff ff ff       	jmp    930 <_init+0x24>

00000980 <memcpy@plt>:
 980:	ff a3 1c 00 00 00    	jmp    *0x1c(%ebx)
 986:	68 20 00 00 00       	push   $0x20
 98b:	e9 a0 ff ff ff       	jmp    930 <_init+0x24>

00000990 <bzero@plt>:
 990:	ff a3 20 00 00 00    	jmp    *0x20(%ebx)
 996:	68 28 00 00 00       	push   $0x28
 99b:	e9 90 ff ff ff       	jmp    930 <_init+0x24>

000009a0 <fgets@plt>:
 9a0:	ff a3 24 00 00 00    	jmp    *0x24(%ebx)
 9a6:	68 30 00 00 00       	push   $0x30
 9ab:	e9 80 ff ff ff       	jmp    930 <_init+0x24>

000009b0 <signal@plt>:
 9b0:	ff a3 28 00 00 00    	jmp    *0x28(%ebx)
 9b6:	68 38 00 00 00       	push   $0x38
 9bb:	e9 70 ff ff ff       	jmp    930 <_init+0x24>

000009c0 <sleep@plt>:
 9c0:	ff a3 2c 00 00 00    	jmp    *0x2c(%ebx)
 9c6:	68 40 00 00 00       	push   $0x40
 9cb:	e9 60 ff ff ff       	jmp    930 <_init+0x24>

000009d0 <alarm@plt>:
 9d0:	ff a3 30 00 00 00    	jmp    *0x30(%ebx)
 9d6:	68 48 00 00 00       	push   $0x48
 9db:	e9 50 ff ff ff       	jmp    930 <_init+0x24>

000009e0 <htons@plt>:
 9e0:	ff a3 34 00 00 00    	jmp    *0x34(%ebx)
 9e6:	68 50 00 00 00       	push   $0x50
 9eb:	e9 40 ff ff ff       	jmp    930 <_init+0x24>

000009f0 <bcopy@plt>:
 9f0:	ff a3 38 00 00 00    	jmp    *0x38(%ebx)
 9f6:	68 58 00 00 00       	push   $0x58
 9fb:	e9 30 ff ff ff       	jmp    930 <_init+0x24>

00000a00 <strcpy@plt>:
 a00:	ff a3 3c 00 00 00    	jmp    *0x3c(%ebx)
 a06:	68 60 00 00 00       	push   $0x60
 a0b:	e9 20 ff ff ff       	jmp    930 <_init+0x24>

00000a10 <gethostname@plt>:
 a10:	ff a3 40 00 00 00    	jmp    *0x40(%ebx)
 a16:	68 68 00 00 00       	push   $0x68
 a1b:	e9 10 ff ff ff       	jmp    930 <_init+0x24>

00000a20 <getenv@plt>:
 a20:	ff a3 44 00 00 00    	jmp    *0x44(%ebx)
 a26:	68 70 00 00 00       	push   $0x70
 a2b:	e9 00 ff ff ff       	jmp    930 <_init+0x24>

00000a30 <puts@plt>:
 a30:	ff a3 48 00 00 00    	jmp    *0x48(%ebx)
 a36:	68 78 00 00 00       	push   $0x78
 a3b:	e9 f0 fe ff ff       	jmp    930 <_init+0x24>

00000a40 <exit@plt>:
 a40:	ff a3 4c 00 00 00    	jmp    *0x4c(%ebx)
 a46:	68 80 00 00 00       	push   $0x80
 a4b:	e9 e0 fe ff ff       	jmp    930 <_init+0x24>

00000a50 <strlen@plt>:
 a50:	ff a3 50 00 00 00    	jmp    *0x50(%ebx)
 a56:	68 88 00 00 00       	push   $0x88
 a5b:	e9 d0 fe ff ff       	jmp    930 <_init+0x24>

00000a60 <__libc_start_main@plt>:
 a60:	ff a3 54 00 00 00    	jmp    *0x54(%ebx)
 a66:	68 90 00 00 00       	push   $0x90
 a6b:	e9 c0 fe ff ff       	jmp    930 <_init+0x24>

00000a70 <fprintf@plt>:
 a70:	ff a3 58 00 00 00    	jmp    *0x58(%ebx)
 a76:	68 98 00 00 00       	push   $0x98
 a7b:	e9 b0 fe ff ff       	jmp    930 <_init+0x24>

00000a80 <write@plt>:
 a80:	ff a3 5c 00 00 00    	jmp    *0x5c(%ebx)
 a86:	68 a0 00 00 00       	push   $0xa0
 a8b:	e9 a0 fe ff ff       	jmp    930 <_init+0x24>

00000a90 <__isoc99_sscanf@plt>:
 a90:	ff a3 60 00 00 00    	jmp    *0x60(%ebx)
 a96:	68 a8 00 00 00       	push   $0xa8
 a9b:	e9 90 fe ff ff       	jmp    930 <_init+0x24>

00000aa0 <fopen@plt>:
 aa0:	ff a3 64 00 00 00    	jmp    *0x64(%ebx)
 aa6:	68 b0 00 00 00       	push   $0xb0
 aab:	e9 80 fe ff ff       	jmp    930 <_init+0x24>

00000ab0 <__errno_location@plt>:
 ab0:	ff a3 68 00 00 00    	jmp    *0x68(%ebx)
 ab6:	68 b8 00 00 00       	push   $0xb8
 abb:	e9 70 fe ff ff       	jmp    930 <_init+0x24>

00000ac0 <sprintf@plt>:
 ac0:	ff a3 6c 00 00 00    	jmp    *0x6c(%ebx)
 ac6:	68 c0 00 00 00       	push   $0xc0
 acb:	e9 60 fe ff ff       	jmp    930 <_init+0x24>

00000ad0 <atoi@plt>:
 ad0:	ff a3 70 00 00 00    	jmp    *0x70(%ebx)
 ad6:	68 c8 00 00 00       	push   $0xc8
 adb:	e9 50 fe ff ff       	jmp    930 <_init+0x24>

00000ae0 <socket@plt>:
 ae0:	ff a3 74 00 00 00    	jmp    *0x74(%ebx)
 ae6:	68 d0 00 00 00       	push   $0xd0
 aeb:	e9 40 fe ff ff       	jmp    930 <_init+0x24>

00000af0 <gethostbyname@plt>:
 af0:	ff a3 78 00 00 00    	jmp    *0x78(%ebx)
 af6:	68 d8 00 00 00       	push   $0xd8
 afb:	e9 30 fe ff ff       	jmp    930 <_init+0x24>

00000b00 <connect@plt>:
 b00:	ff a3 7c 00 00 00    	jmp    *0x7c(%ebx)
 b06:	68 e0 00 00 00       	push   $0xe0
 b0b:	e9 20 fe ff ff       	jmp    930 <_init+0x24>

00000b10 <close@plt>:
 b10:	ff a3 80 00 00 00    	jmp    *0x80(%ebx)
 b16:	68 e8 00 00 00       	push   $0xe8
 b1b:	e9 10 fe ff ff       	jmp    930 <_init+0x24>

00000b20 <__ctype_b_loc@plt>:
 b20:	ff a3 84 00 00 00    	jmp    *0x84(%ebx)
 b26:	68 f0 00 00 00       	push   $0xf0
 b2b:	e9 00 fe ff ff       	jmp    930 <_init+0x24>

Disassembly of section .plt.got:

00000b30 <.plt.got>:
 b30:	ff a3 e4 ff ff ff    	jmp    *-0x1c(%ebx)
 b36:	66 90                	xchg   %ax,%ax
 b38:	ff a3 e8 ff ff ff    	jmp    *-0x18(%ebx)
 b3e:	66 90                	xchg   %ax,%ax

Disassembly of section .text:

00000b40 <_start>:
     b40:	31 ed                	xor    %ebp,%ebp
     b42:	5e                   	pop    %esi
     b43:	89 e1                	mov    %esp,%ecx
     b45:	83 e4 f0             	and    $0xfffffff0,%esp
     b48:	50                   	push   %eax
     b49:	54                   	push   %esp
     b4a:	52                   	push   %edx
     b4b:	e8 22 00 00 00       	call   b72 <_start+0x32>
     b50:	81 c3 b0 44 00 00    	add    $0x44b0,%ebx
     b56:	8d 83 30 d8 ff ff    	lea    -0x27d0(%ebx),%eax
     b5c:	50                   	push   %eax
     b5d:	8d 83 d0 d7 ff ff    	lea    -0x2830(%ebx),%eax
     b63:	50                   	push   %eax
     b64:	51                   	push   %ecx
     b65:	56                   	push   %esi
     b66:	ff b3 f4 ff ff ff    	pushl  -0xc(%ebx)
     b6c:	e8 ef fe ff ff       	call   a60 <__libc_start_main@plt>
     b71:	f4                   	hlt    
     b72:	8b 1c 24             	mov    (%esp),%ebx
     b75:	c3                   	ret    
     b76:	66 90                	xchg   %ax,%ax
     b78:	66 90                	xchg   %ax,%ax
     b7a:	66 90                	xchg   %ax,%ax
     b7c:	66 90                	xchg   %ax,%ax
     b7e:	66 90                	xchg   %ax,%ax

00000b80 <__x86.get_pc_thunk.bx>:
     b80:	8b 1c 24             	mov    (%esp),%ebx
     b83:	c3                   	ret    
     b84:	66 90                	xchg   %ax,%ax
     b86:	66 90                	xchg   %ax,%ax
     b88:	66 90                	xchg   %ax,%ax
     b8a:	66 90                	xchg   %ax,%ax
     b8c:	66 90                	xchg   %ax,%ax
     b8e:	66 90                	xchg   %ax,%ax

00000b90 <deregister_tm_clones>:
     b90:	e8 17 01 00 00       	call   cac <__x86.get_pc_thunk.dx>
     b95:	81 c2 6b 44 00 00    	add    $0x446b,%edx
     b9b:	8d 8a 00 08 00 00    	lea    0x800(%edx),%ecx
     ba1:	8d 82 03 08 00 00    	lea    0x803(%edx),%eax
     ba7:	29 c8                	sub    %ecx,%eax
     ba9:	83 f8 06             	cmp    $0x6,%eax
     bac:	76 17                	jbe    bc5 <deregister_tm_clones+0x35>
     bae:	8b 82 dc ff ff ff    	mov    -0x24(%edx),%eax
     bb4:	85 c0                	test   %eax,%eax
     bb6:	74 0d                	je     bc5 <deregister_tm_clones+0x35>
     bb8:	55                   	push   %ebp
     bb9:	89 e5                	mov    %esp,%ebp
     bbb:	83 ec 14             	sub    $0x14,%esp
     bbe:	51                   	push   %ecx
     bbf:	ff d0                	call   *%eax
     bc1:	83 c4 10             	add    $0x10,%esp
     bc4:	c9                   	leave  
     bc5:	f3 c3                	repz ret 
     bc7:	89 f6                	mov    %esi,%esi
     bc9:	8d bc 27 00 00 00 00 	lea    0x0(%edi,%eiz,1),%edi

00000bd0 <register_tm_clones>:
     bd0:	e8 d7 00 00 00       	call   cac <__x86.get_pc_thunk.dx>
     bd5:	81 c2 2b 44 00 00    	add    $0x442b,%edx
     bdb:	55                   	push   %ebp
     bdc:	8d 8a 00 08 00 00    	lea    0x800(%edx),%ecx
     be2:	8d 82 00 08 00 00    	lea    0x800(%edx),%eax
     be8:	89 e5                	mov    %esp,%ebp
     bea:	53                   	push   %ebx
     beb:	29 c8                	sub    %ecx,%eax
     bed:	c1 f8 02             	sar    $0x2,%eax
     bf0:	83 ec 04             	sub    $0x4,%esp
     bf3:	89 c3                	mov    %eax,%ebx
     bf5:	c1 eb 1f             	shr    $0x1f,%ebx
     bf8:	01 d8                	add    %ebx,%eax
     bfa:	d1 f8                	sar    %eax
     bfc:	74 14                	je     c12 <register_tm_clones+0x42>
     bfe:	8b 92 fc ff ff ff    	mov    -0x4(%edx),%edx
     c04:	85 d2                	test   %edx,%edx
     c06:	74 0a                	je     c12 <register_tm_clones+0x42>
     c08:	83 ec 08             	sub    $0x8,%esp
     c0b:	50                   	push   %eax
     c0c:	51                   	push   %ecx
     c0d:	ff d2                	call   *%edx
     c0f:	83 c4 10             	add    $0x10,%esp
     c12:	8b 5d fc             	mov    -0x4(%ebp),%ebx
     c15:	c9                   	leave  
     c16:	c3                   	ret    
     c17:	89 f6                	mov    %esi,%esi
     c19:	8d bc 27 00 00 00 00 	lea    0x0(%edi,%eiz,1),%edi

00000c20 <__do_global_dtors_aux>:
     c20:	55                   	push   %ebp
     c21:	89 e5                	mov    %esp,%ebp
     c23:	53                   	push   %ebx
     c24:	e8 57 ff ff ff       	call   b80 <__x86.get_pc_thunk.bx>
     c29:	81 c3 d7 43 00 00    	add    $0x43d7,%ebx
     c2f:	83 ec 04             	sub    $0x4,%esp
     c32:	80 bb 00 08 00 00 00 	cmpb   $0x0,0x800(%ebx)
     c39:	75 27                	jne    c62 <__do_global_dtors_aux+0x42>
     c3b:	8b 83 e4 ff ff ff    	mov    -0x1c(%ebx),%eax
     c41:	85 c0                	test   %eax,%eax
     c43:	74 11                	je     c56 <__do_global_dtors_aux+0x36>
     c45:	83 ec 0c             	sub    $0xc,%esp
     c48:	ff b3 a4 00 00 00    	pushl  0xa4(%ebx)
     c4e:	e8 dd fe ff ff       	call   b30 <__ctype_b_loc@plt+0x10>
     c53:	83 c4 10             	add    $0x10,%esp
     c56:	e8 35 ff ff ff       	call   b90 <deregister_tm_clones>
     c5b:	c6 83 00 08 00 00 01 	movb   $0x1,0x800(%ebx)
     c62:	8b 5d fc             	mov    -0x4(%ebp),%ebx
     c65:	c9                   	leave  
     c66:	c3                   	ret    
     c67:	89 f6                	mov    %esi,%esi
     c69:	8d bc 27 00 00 00 00 	lea    0x0(%edi,%eiz,1),%edi

00000c70 <frame_dummy>:
     c70:	e8 37 00 00 00       	call   cac <__x86.get_pc_thunk.dx>
     c75:	81 c2 8b 43 00 00    	add    $0x438b,%edx
     c7b:	8d 82 e8 fe ff ff    	lea    -0x118(%edx),%eax
     c81:	8b 08                	mov    (%eax),%ecx
     c83:	85 c9                	test   %ecx,%ecx
     c85:	75 09                	jne    c90 <frame_dummy+0x20>
     c87:	e9 44 ff ff ff       	jmp    bd0 <register_tm_clones>
     c8c:	8d 74 26 00          	lea    0x0(%esi,%eiz,1),%esi
     c90:	8b 92 f8 ff ff ff    	mov    -0x8(%edx),%edx
     c96:	85 d2                	test   %edx,%edx
     c98:	74 ed                	je     c87 <frame_dummy+0x17>
     c9a:	55                   	push   %ebp
     c9b:	89 e5                	mov    %esp,%ebp
     c9d:	83 ec 14             	sub    $0x14,%esp
     ca0:	50                   	push   %eax
     ca1:	ff d2                	call   *%edx
     ca3:	83 c4 10             	add    $0x10,%esp
     ca6:	c9                   	leave  
     ca7:	e9 24 ff ff ff       	jmp    bd0 <register_tm_clones>

00000cac <__x86.get_pc_thunk.dx>:
     cac:	8b 14 24             	mov    (%esp),%edx
     caf:	c3                   	ret    

00000cb0 <main>:
     cb0:	8d 4c 24 04          	lea    0x4(%esp),%ecx
     cb4:	83 e4 f0             	and    $0xfffffff0,%esp
     cb7:	ff 71 fc             	pushl  -0x4(%ecx)
     cba:	55                   	push   %ebp
     cbb:	89 e5                	mov    %esp,%ebp
     cbd:	56                   	push   %esi
     cbe:	53                   	push   %ebx
     cbf:	51                   	push   %ecx
     cc0:	83 ec 1c             	sub    $0x1c,%esp
     cc3:	e8 b8 fe ff ff       	call   b80 <__x86.get_pc_thunk.bx>
     cc8:	81 c3 38 43 00 00    	add    $0x4338,%ebx
     cce:	89 ce                	mov    %ecx,%esi
     cd0:	83 3e 01             	cmpl   $0x1,(%esi)
     cd3:	75 15                	jne    cea <main+0x3a>
     cd5:	8b 83 ec ff ff ff    	mov    -0x14(%ebx),%eax
     cdb:	8b 10                	mov    (%eax),%edx
     cdd:	8d 83 08 08 00 00    	lea    0x808(%ebx),%eax
     ce3:	89 10                	mov    %edx,(%eax)
     ce5:	e9 83 00 00 00       	jmp    d6d <main+0xbd>
     cea:	83 3e 02             	cmpl   $0x2,(%esi)
     ced:	75 5c                	jne    d4b <main+0x9b>
     cef:	8b 46 04             	mov    0x4(%esi),%eax
     cf2:	83 c0 04             	add    $0x4,%eax
     cf5:	8b 00                	mov    (%eax),%eax
     cf7:	83 ec 08             	sub    $0x8,%esp
     cfa:	8d 93 50 d8 ff ff    	lea    -0x27b0(%ebx),%edx
     d00:	52                   	push   %edx
     d01:	50                   	push   %eax
     d02:	e8 99 fd ff ff       	call   aa0 <fopen@plt>
     d07:	83 c4 10             	add    $0x10,%esp
     d0a:	89 c2                	mov    %eax,%edx
     d0c:	8d 83 08 08 00 00    	lea    0x808(%ebx),%eax
     d12:	89 10                	mov    %edx,(%eax)
     d14:	8d 83 08 08 00 00    	lea    0x808(%ebx),%eax
     d1a:	8b 00                	mov    (%eax),%eax
     d1c:	85 c0                	test   %eax,%eax
     d1e:	75 4d                	jne    d6d <main+0xbd>
     d20:	8b 46 04             	mov    0x4(%esi),%eax
     d23:	83 c0 04             	add    $0x4,%eax
     d26:	8b 10                	mov    (%eax),%edx
     d28:	8b 46 04             	mov    0x4(%esi),%eax
     d2b:	8b 00                	mov    (%eax),%eax
     d2d:	83 ec 04             	sub    $0x4,%esp
     d30:	52                   	push   %edx
     d31:	50                   	push   %eax
     d32:	8d 83 52 d8 ff ff    	lea    -0x27ae(%ebx),%eax
     d38:	50                   	push   %eax
     d39:	e8 22 fc ff ff       	call   960 <printf@plt>
     d3e:	83 c4 10             	add    $0x10,%esp
     d41:	83 ec 0c             	sub    $0xc,%esp
     d44:	6a 08                	push   $0x8
     d46:	e8 f5 fc ff ff       	call   a40 <exit@plt>
     d4b:	8b 46 04             	mov    0x4(%esi),%eax
     d4e:	8b 00                	mov    (%eax),%eax
     d50:	83 ec 08             	sub    $0x8,%esp
     d53:	50                   	push   %eax
     d54:	8d 83 6f d8 ff ff    	lea    -0x2791(%ebx),%eax
     d5a:	50                   	push   %eax
     d5b:	e8 00 fc ff ff       	call   960 <printf@plt>
     d60:	83 c4 10             	add    $0x10,%esp
     d63:	83 ec 0c             	sub    $0xc,%esp
     d66:	6a 08                	push   $0x8
     d68:	e8 d3 fc ff ff       	call   a40 <exit@plt>
     d6d:	e8 18 08 00 00       	call   158a <initialize_bomb>
     d72:	83 ec 0c             	sub    $0xc,%esp
     d75:	8d 83 8c d8 ff ff    	lea    -0x2774(%ebx),%eax
     d7b:	50                   	push   %eax
     d7c:	e8 af fc ff ff       	call   a30 <puts@plt>
     d81:	83 c4 10             	add    $0x10,%esp
     d84:	83 ec 0c             	sub    $0xc,%esp
     d87:	8d 83 c8 d8 ff ff    	lea    -0x2738(%ebx),%eax
     d8d:	50                   	push   %eax
     d8e:	e8 9d fc ff ff       	call   a30 <puts@plt>
     d93:	83 c4 10             	add    $0x10,%esp
     d96:	e8 55 09 00 00       	call   16f0 <read_line>
     d9b:	89 45 e4             	mov    %eax,-0x1c(%ebp)
     d9e:	83 ec 0c             	sub    $0xc,%esp
     da1:	ff 75 e4             	pushl  -0x1c(%ebp)
     da4:	e8 f9 00 00 00       	call   ea2 <phase_1>
     da9:	83 c4 10             	add    $0x10,%esp
     dac:	e8 22 0c 00 00       	call   19d3 <phase_defused>
     db1:	83 ec 0c             	sub    $0xc,%esp
     db4:	8d 83 f4 d8 ff ff    	lea    -0x270c(%ebx),%eax
     dba:	50                   	push   %eax
     dbb:	e8 70 fc ff ff       	call   a30 <puts@plt>
     dc0:	83 c4 10             	add    $0x10,%esp
     dc3:	e8 28 09 00 00       	call   16f0 <read_line>
     dc8:	89 45 e4             	mov    %eax,-0x1c(%ebp)
     dcb:	83 ec 0c             	sub    $0xc,%esp
     dce:	ff 75 e4             	pushl  -0x1c(%ebp)
     dd1:	e8 02 01 00 00       	call   ed8 <phase_2>
     dd6:	83 c4 10             	add    $0x10,%esp
     dd9:	e8 f5 0b 00 00       	call   19d3 <phase_defused>
     dde:	83 ec 0c             	sub    $0xc,%esp
     de1:	8d 83 1d d9 ff ff    	lea    -0x26e3(%ebx),%eax
     de7:	50                   	push   %eax
     de8:	e8 43 fc ff ff       	call   a30 <puts@plt>
     ded:	83 c4 10             	add    $0x10,%esp
     df0:	e8 fb 08 00 00       	call   16f0 <read_line>
     df5:	89 45 e4             	mov    %eax,-0x1c(%ebp)
     df8:	83 ec 0c             	sub    $0xc,%esp
     dfb:	ff 75 e4             	pushl  -0x1c(%ebp)
     dfe:	e8 4c 01 00 00       	call   f4f <phase_3>
     e03:	83 c4 10             	add    $0x10,%esp
     e06:	e8 c8 0b 00 00       	call   19d3 <phase_defused>
     e0b:	83 ec 0c             	sub    $0xc,%esp
     e0e:	8d 83 3b d9 ff ff    	lea    -0x26c5(%ebx),%eax
     e14:	50                   	push   %eax
     e15:	e8 16 fc ff ff       	call   a30 <puts@plt>
     e1a:	83 c4 10             	add    $0x10,%esp
     e1d:	e8 ce 08 00 00       	call   16f0 <read_line>
     e22:	89 45 e4             	mov    %eax,-0x1c(%ebp)
     e25:	83 ec 0c             	sub    $0xc,%esp
     e28:	ff 75 e4             	pushl  -0x1c(%ebp)
     e2b:	e8 52 02 00 00       	call   1082 <phase_4>
     e30:	83 c4 10             	add    $0x10,%esp
     e33:	e8 9b 0b 00 00       	call   19d3 <phase_defused>
     e38:	83 ec 0c             	sub    $0xc,%esp
     e3b:	8d 83 4c d9 ff ff    	lea    -0x26b4(%ebx),%eax
     e41:	50                   	push   %eax
     e42:	e8 e9 fb ff ff       	call   a30 <puts@plt>
     e47:	83 c4 10             	add    $0x10,%esp
     e4a:	e8 a1 08 00 00       	call   16f0 <read_line>
     e4f:	89 45 e4             	mov    %eax,-0x1c(%ebp)
     e52:	83 ec 0c             	sub    $0xc,%esp
     e55:	ff 75 e4             	pushl  -0x1c(%ebp)
     e58:	e8 a6 02 00 00       	call   1103 <phase_5>
     e5d:	83 c4 10             	add    $0x10,%esp
     e60:	e8 6e 0b 00 00       	call   19d3 <phase_defused>
     e65:	83 ec 0c             	sub    $0xc,%esp
     e68:	8d 83 70 d9 ff ff    	lea    -0x2690(%ebx),%eax
     e6e:	50                   	push   %eax
     e6f:	e8 bc fb ff ff       	call   a30 <puts@plt>
     e74:	83 c4 10             	add    $0x10,%esp
     e77:	e8 74 08 00 00       	call   16f0 <read_line>
     e7c:	89 45 e4             	mov    %eax,-0x1c(%ebp)
     e7f:	83 ec 0c             	sub    $0xc,%esp
     e82:	ff 75 e4             	pushl  -0x1c(%ebp)
     e85:	e8 06 03 00 00       	call   1190 <phase_6>
     e8a:	83 c4 10             	add    $0x10,%esp
     e8d:	e8 41 0b 00 00       	call   19d3 <phase_defused>
     e92:	b8 00 00 00 00       	mov    $0x0,%eax
     e97:	8d 65 f4             	lea    -0xc(%ebp),%esp
     e9a:	59                   	pop    %ecx
     e9b:	5b                   	pop    %ebx
     e9c:	5e                   	pop    %esi
     e9d:	5d                   	pop    %ebp
     e9e:	8d 61 fc             	lea    -0x4(%ecx),%esp
     ea1:	c3                   	ret    

00000ea2 <phase_1>:
     ea2:	55                   	push   %ebp
     ea3:	89 e5                	mov    %esp,%ebp
     ea5:	53                   	push   %ebx
     ea6:	83 ec 04             	sub    $0x4,%esp
     ea9:	e8 d2 fc ff ff       	call   b80 <__x86.get_pc_thunk.bx>
     eae:	81 c3 52 41 00 00    	add    $0x4152,%ebx
     eb4:	83 ec 08             	sub    $0x8,%esp
     eb7:	8d 83 90 d9 ff ff    	lea    -0x2670(%ebx),%eax
     ebd:	50                   	push   %eax
     ebe:	ff 75 08             	pushl  0x8(%ebp)
     ec1:	e8 4f 06 00 00       	call   1515 <strings_not_equal>
     ec6:	83 c4 10             	add    $0x10,%esp
     ec9:	85 c0                	test   %eax,%eax
     ecb:	74 05                	je     ed2 <phase_1+0x30>
     ecd:	e8 a2 0a 00 00       	call   1974 <explode_bomb>
     ed2:	90                   	nop
     ed3:	8b 5d fc             	mov    -0x4(%ebp),%ebx
     ed6:	c9                   	leave  
     ed7:	c3                   	ret    

00000ed8 <phase_2>:
     ed8:	55                   	push   %ebp
     ed9:	89 e5                	mov    %esp,%ebp
     edb:	53                   	push   %ebx
     edc:	83 ec 24             	sub    $0x24,%esp
     edf:	e8 9c fc ff ff       	call   b80 <__x86.get_pc_thunk.bx>
     ee4:	81 c3 1c 41 00 00    	add    $0x411c,%ebx
     eea:	83 ec 08             	sub    $0x8,%esp
     eed:	8d 45 dc             	lea    -0x24(%ebp),%eax
     ef0:	50                   	push   %eax
     ef1:	ff 75 08             	pushl  0x8(%ebp)
     ef4:	e8 82 05 00 00       	call   147b <read_six_numbers>
     ef9:	83 c4 10             	add    $0x10,%esp
     efc:	8b 45 dc             	mov    -0x24(%ebp),%eax
     eff:	85 c0                	test   %eax,%eax
     f01:	75 08                	jne    f0b <phase_2+0x33>
     f03:	8b 45 e0             	mov    -0x20(%ebp),%eax
     f06:	83 f8 01             	cmp    $0x1,%eax
     f09:	74 05                	je     f10 <phase_2+0x38>
     f0b:	e8 64 0a 00 00       	call   1974 <explode_bomb>
     f10:	c7 45 f4 02 00 00 00 	movl   $0x2,-0xc(%ebp)
     f17:	eb 2a                	jmp    f43 <phase_2+0x6b>
     f19:	8b 45 f4             	mov    -0xc(%ebp),%eax
     f1c:	8b 44 85 dc          	mov    -0x24(%ebp,%eax,4),%eax
     f20:	8b 55 f4             	mov    -0xc(%ebp),%edx
     f23:	83 ea 02             	sub    $0x2,%edx
     f26:	8b 4c 95 dc          	mov    -0x24(%ebp,%edx,4),%ecx
     f2a:	8b 55 f4             	mov    -0xc(%ebp),%edx
     f2d:	83 ea 01             	sub    $0x1,%edx
     f30:	8b 54 95 dc          	mov    -0x24(%ebp,%edx,4),%edx
     f34:	01 ca                	add    %ecx,%edx
     f36:	39 d0                	cmp    %edx,%eax
     f38:	74 05                	je     f3f <phase_2+0x67>
     f3a:	e8 35 0a 00 00       	call   1974 <explode_bomb>
     f3f:	83 45 f4 01          	addl   $0x1,-0xc(%ebp)
     f43:	83 7d f4 05          	cmpl   $0x5,-0xc(%ebp)
     f47:	7e d0                	jle    f19 <phase_2+0x41>
     f49:	90                   	nop
     f4a:	8b 5d fc             	mov    -0x4(%ebp),%ebx
     f4d:	c9                   	leave  
     f4e:	c3                   	ret    

00000f4f <phase_3>:
     f4f:	55                   	push   %ebp
     f50:	89 e5                	mov    %esp,%ebp
     f52:	53                   	push   %ebx
     f53:	83 ec 14             	sub    $0x14,%esp
     f56:	e8 25 fc ff ff       	call   b80 <__x86.get_pc_thunk.bx>
     f5b:	81 c3 a5 40 00 00    	add    $0x40a5,%ebx
     f61:	c7 45 f4 00 00 00 00 	movl   $0x0,-0xc(%ebp)
     f68:	c7 45 f0 00 00 00 00 	movl   $0x0,-0x10(%ebp)
     f6f:	8d 45 e8             	lea    -0x18(%ebp),%eax
     f72:	50                   	push   %eax
     f73:	8d 45 ec             	lea    -0x14(%ebp),%eax
     f76:	50                   	push   %eax
     f77:	8d 83 ba d9 ff ff    	lea    -0x2646(%ebx),%eax
     f7d:	50                   	push   %eax
     f7e:	ff 75 08             	pushl  0x8(%ebp)
     f81:	e8 0a fb ff ff       	call   a90 <__isoc99_sscanf@plt>
     f86:	83 c4 10             	add    $0x10,%esp
     f89:	89 45 f0             	mov    %eax,-0x10(%ebp)
     f8c:	83 7d f0 01          	cmpl   $0x1,-0x10(%ebp)
     f90:	7f 05                	jg     f97 <phase_3+0x48>
     f92:	e8 dd 09 00 00       	call   1974 <explode_bomb>
     f97:	8b 45 ec             	mov    -0x14(%ebp),%eax
     f9a:	83 f8 07             	cmp    $0x7,%eax
     f9d:	77 48                	ja     fe7 <.L21+0x9>
     f9f:	c1 e0 02             	shl    $0x2,%eax
     fa2:	8b 84 18 c0 d9 ff ff 	mov    -0x2640(%eax,%ebx,1),%eax
     fa9:	01 d8                	add    %ebx,%eax
     fab:	ff e0                	jmp    *%eax

00000fad <.L13>:
     fad:	81 45 f4 d0 02 00 00 	addl   $0x2d0,-0xc(%ebp)

00000fb4 <.L15>:
     fb4:	81 6d f4 93 02 00 00 	subl   $0x293,-0xc(%ebp)

00000fbb <.L16>:
     fbb:	81 45 f4 d7 00 00 00 	addl   $0xd7,-0xc(%ebp)

00000fc2 <.L17>:
     fc2:	81 6d f4 b5 02 00 00 	subl   $0x2b5,-0xc(%ebp)

00000fc9 <.L18>:
     fc9:	81 45 f4 b5 02 00 00 	addl   $0x2b5,-0xc(%ebp)

00000fd0 <.L19>:
     fd0:	81 6d f4 b5 02 00 00 	subl   $0x2b5,-0xc(%ebp)

00000fd7 <.L20>:
     fd7:	81 45 f4 b5 02 00 00 	addl   $0x2b5,-0xc(%ebp)

00000fde <.L21>:
     fde:	81 6d f4 b5 02 00 00 	subl   $0x2b5,-0xc(%ebp)
     fe5:	eb 05                	jmp    fec <.L21+0xe>
     fe7:	e8 88 09 00 00       	call   1974 <explode_bomb>
     fec:	8b 45 ec             	mov    -0x14(%ebp),%eax
     fef:	83 f8 05             	cmp    $0x5,%eax
     ff2:	7f 08                	jg     ffc <.L21+0x1e>
     ff4:	8b 45 e8             	mov    -0x18(%ebp),%eax
     ff7:	39 45 f4             	cmp    %eax,-0xc(%ebp)
     ffa:	74 05                	je     1001 <.L21+0x23>
     ffc:	e8 73 09 00 00       	call   1974 <explode_bomb>
    1001:	90                   	nop
    1002:	8b 5d fc             	mov    -0x4(%ebp),%ebx
    1005:	c9                   	leave  
    1006:	c3                   	ret    

00001007 <func4>:
    1007:	55                   	push   %ebp
    1008:	89 e5                	mov    %esp,%ebp
    100a:	83 ec 18             	sub    $0x18,%esp
    100d:	e8 b4 03 00 00       	call   13c6 <__x86.get_pc_thunk.ax>
    1012:	05 ee 3f 00 00       	add    $0x3fee,%eax
    1017:	8b 45 10             	mov    0x10(%ebp),%eax
    101a:	2b 45 0c             	sub    0xc(%ebp),%eax
    101d:	89 c2                	mov    %eax,%edx
    101f:	c1 ea 1f             	shr    $0x1f,%edx
    1022:	01 d0                	add    %edx,%eax
    1024:	d1 f8                	sar    %eax
    1026:	89 c2                	mov    %eax,%edx
    1028:	8b 45 0c             	mov    0xc(%ebp),%eax
    102b:	01 d0                	add    %edx,%eax
    102d:	89 45 f4             	mov    %eax,-0xc(%ebp)
    1030:	8b 45 f4             	mov    -0xc(%ebp),%eax
    1033:	3b 45 08             	cmp    0x8(%ebp),%eax
    1036:	7e 1c                	jle    1054 <func4+0x4d>
    1038:	8b 45 f4             	mov    -0xc(%ebp),%eax
    103b:	83 e8 01             	sub    $0x1,%eax
    103e:	83 ec 04             	sub    $0x4,%esp
    1041:	50                   	push   %eax
    1042:	ff 75 0c             	pushl  0xc(%ebp)
    1045:	ff 75 08             	pushl  0x8(%ebp)
    1048:	e8 ba ff ff ff       	call   1007 <func4>
    104d:	83 c4 10             	add    $0x10,%esp
    1050:	01 c0                	add    %eax,%eax
    1052:	eb 2c                	jmp    1080 <func4+0x79>
    1054:	8b 45 f4             	mov    -0xc(%ebp),%eax
    1057:	3b 45 08             	cmp    0x8(%ebp),%eax
    105a:	7d 1f                	jge    107b <func4+0x74>
    105c:	8b 45 f4             	mov    -0xc(%ebp),%eax
    105f:	83 c0 01             	add    $0x1,%eax
    1062:	83 ec 04             	sub    $0x4,%esp
    1065:	ff 75 10             	pushl  0x10(%ebp)
    1068:	50                   	push   %eax
    1069:	ff 75 08             	pushl  0x8(%ebp)
    106c:	e8 96 ff ff ff       	call   1007 <func4>
    1071:	83 c4 10             	add    $0x10,%esp
    1074:	01 c0                	add    %eax,%eax
    1076:	83 c0 01             	add    $0x1,%eax
    1079:	eb 05                	jmp    1080 <func4+0x79>
    107b:	b8 00 00 00 00       	mov    $0x0,%eax
    1080:	c9                   	leave  
    1081:	c3                   	ret    

00001082 <phase_4>:
    1082:	55                   	push   %ebp
    1083:	89 e5                	mov    %esp,%ebp
    1085:	53                   	push   %ebx
    1086:	83 ec 24             	sub    $0x24,%esp
    1089:	e8 f2 fa ff ff       	call   b80 <__x86.get_pc_thunk.bx>
    108e:	81 c3 72 3f 00 00    	add    $0x3f72,%ebx
    1094:	8d 45 e4             	lea    -0x1c(%ebp),%eax
    1097:	50                   	push   %eax
    1098:	8d 45 e8             	lea    -0x18(%ebp),%eax
    109b:	50                   	push   %eax
    109c:	8d 83 ba d9 ff ff    	lea    -0x2646(%ebx),%eax
    10a2:	50                   	push   %eax
    10a3:	ff 75 08             	pushl  0x8(%ebp)
    10a6:	e8 e5 f9 ff ff       	call   a90 <__isoc99_sscanf@plt>
    10ab:	83 c4 10             	add    $0x10,%esp
    10ae:	89 45 f4             	mov    %eax,-0xc(%ebp)
    10b1:	83 7d f4 02          	cmpl   $0x2,-0xc(%ebp)
    10b5:	75 0f                	jne    10c6 <phase_4+0x44>
    10b7:	8b 45 e8             	mov    -0x18(%ebp),%eax
    10ba:	85 c0                	test   %eax,%eax
    10bc:	78 08                	js     10c6 <phase_4+0x44>
    10be:	8b 45 e8             	mov    -0x18(%ebp),%eax
    10c1:	83 f8 0e             	cmp    $0xe,%eax
    10c4:	7e 05                	jle    10cb <phase_4+0x49>
    10c6:	e8 a9 08 00 00       	call   1974 <explode_bomb>
    10cb:	c7 45 f0 06 00 00 00 	movl   $0x6,-0x10(%ebp)
    10d2:	8b 45 e8             	mov    -0x18(%ebp),%eax
    10d5:	83 ec 04             	sub    $0x4,%esp
    10d8:	6a 0e                	push   $0xe
    10da:	6a 00                	push   $0x0
    10dc:	50                   	push   %eax
    10dd:	e8 25 ff ff ff       	call   1007 <func4>
    10e2:	83 c4 10             	add    $0x10,%esp
    10e5:	89 45 ec             	mov    %eax,-0x14(%ebp)
    10e8:	8b 45 ec             	mov    -0x14(%ebp),%eax
    10eb:	3b 45 f0             	cmp    -0x10(%ebp),%eax
    10ee:	75 08                	jne    10f8 <phase_4+0x76>
    10f0:	8b 45 e4             	mov    -0x1c(%ebp),%eax
    10f3:	3b 45 f0             	cmp    -0x10(%ebp),%eax
    10f6:	74 05                	je     10fd <phase_4+0x7b>
    10f8:	e8 77 08 00 00       	call   1974 <explode_bomb>
    10fd:	90                   	nop
    10fe:	8b 5d fc             	mov    -0x4(%ebp),%ebx
    1101:	c9                   	leave  
    1102:	c3                   	ret    

00001103 <phase_5>:
    1103:	55                   	push   %ebp
    1104:	89 e5                	mov    %esp,%ebp
    1106:	53                   	push   %ebx
    1107:	83 ec 14             	sub    $0x14,%esp
    110a:	e8 71 fa ff ff       	call   b80 <__x86.get_pc_thunk.bx>
    110f:	81 c3 f1 3e 00 00    	add    $0x3ef1,%ebx
    1115:	83 ec 0c             	sub    $0xc,%esp
    1118:	ff 75 08             	pushl  0x8(%ebp)
    111b:	e8 bf 03 00 00       	call   14df <string_length>
    1120:	83 c4 10             	add    $0x10,%esp
    1123:	89 45 f0             	mov    %eax,-0x10(%ebp)
    1126:	83 7d f0 06          	cmpl   $0x6,-0x10(%ebp)
    112a:	74 05                	je     1131 <phase_5+0x2e>
    112c:	e8 43 08 00 00       	call   1974 <explode_bomb>
    1131:	c7 45 f4 00 00 00 00 	movl   $0x0,-0xc(%ebp)
    1138:	eb 27                	jmp    1161 <phase_5+0x5e>
    113a:	8b 55 f4             	mov    -0xc(%ebp),%edx
    113d:	8b 45 08             	mov    0x8(%ebp),%eax
    1140:	01 d0                	add    %edx,%eax
    1142:	0f b6 00             	movzbl (%eax),%eax
    1145:	0f be c0             	movsbl %al,%eax
    1148:	83 e0 0f             	and    $0xf,%eax
    114b:	0f b6 84 03 4c 05 00 	movzbl 0x54c(%ebx,%eax,1),%eax
    1152:	00 
    1153:	8d 4d e9             	lea    -0x17(%ebp),%ecx
    1156:	8b 55 f4             	mov    -0xc(%ebp),%edx
    1159:	01 ca                	add    %ecx,%edx
    115b:	88 02                	mov    %al,(%edx)
    115d:	83 45 f4 01          	addl   $0x1,-0xc(%ebp)
    1161:	83 7d f4 05          	cmpl   $0x5,-0xc(%ebp)
    1165:	7e d3                	jle    113a <phase_5+0x37>
    1167:	c6 45 ef 00          	movb   $0x0,-0x11(%ebp)
    116b:	83 ec 08             	sub    $0x8,%esp
    116e:	8d 83 e0 d9 ff ff    	lea    -0x2620(%ebx),%eax
    1174:	50                   	push   %eax
    1175:	8d 45 e9             	lea    -0x17(%ebp),%eax
    1178:	50                   	push   %eax
    1179:	e8 97 03 00 00       	call   1515 <strings_not_equal>
    117e:	83 c4 10             	add    $0x10,%esp
    1181:	85 c0                	test   %eax,%eax
    1183:	74 05                	je     118a <phase_5+0x87>
    1185:	e8 ea 07 00 00       	call   1974 <explode_bomb>
    118a:	90                   	nop
    118b:	8b 5d fc             	mov    -0x4(%ebp),%ebx
    118e:	c9                   	leave  
    118f:	c3                   	ret    

00001190 <phase_6>:
    1190:	55                   	push   %ebp
    1191:	89 e5                	mov    %esp,%ebp
    1193:	53                   	push   %ebx
    1194:	83 ec 44             	sub    $0x44,%esp
    1197:	e8 e4 f9 ff ff       	call   b80 <__x86.get_pc_thunk.bx>
    119c:	81 c3 64 3e 00 00    	add    $0x3e64,%ebx
    11a2:	8d 83 8c 05 00 00    	lea    0x58c(%ebx),%eax
    11a8:	89 45 e8             	mov    %eax,-0x18(%ebp)
    11ab:	83 ec 08             	sub    $0x8,%esp
    11ae:	8d 45 d0             	lea    -0x30(%ebp),%eax
    11b1:	50                   	push   %eax
    11b2:	ff 75 08             	pushl  0x8(%ebp)
    11b5:	e8 c1 02 00 00       	call   147b <read_six_numbers>
    11ba:	83 c4 10             	add    $0x10,%esp
    11bd:	c7 45 f0 00 00 00 00 	movl   $0x0,-0x10(%ebp)
    11c4:	eb 4c                	jmp    1212 <phase_6+0x82>
    11c6:	8b 45 f0             	mov    -0x10(%ebp),%eax
    11c9:	8b 44 85 d0          	mov    -0x30(%ebp,%eax,4),%eax
    11cd:	85 c0                	test   %eax,%eax
    11cf:	7e 0c                	jle    11dd <phase_6+0x4d>
    11d1:	8b 45 f0             	mov    -0x10(%ebp),%eax
    11d4:	8b 44 85 d0          	mov    -0x30(%ebp,%eax,4),%eax
    11d8:	83 f8 06             	cmp    $0x6,%eax
    11db:	7e 05                	jle    11e2 <phase_6+0x52>
    11dd:	e8 92 07 00 00       	call   1974 <explode_bomb>
    11e2:	8b 45 f0             	mov    -0x10(%ebp),%eax
    11e5:	83 c0 01             	add    $0x1,%eax
    11e8:	89 45 ec             	mov    %eax,-0x14(%ebp)
    11eb:	eb 1b                	jmp    1208 <phase_6+0x78>
    11ed:	8b 45 f0             	mov    -0x10(%ebp),%eax
    11f0:	8b 54 85 d0          	mov    -0x30(%ebp,%eax,4),%edx
    11f4:	8b 45 ec             	mov    -0x14(%ebp),%eax
    11f7:	8b 44 85 d0          	mov    -0x30(%ebp,%eax,4),%eax
    11fb:	39 c2                	cmp    %eax,%edx
    11fd:	75 05                	jne    1204 <phase_6+0x74>
    11ff:	e8 70 07 00 00       	call   1974 <explode_bomb>
    1204:	83 45 ec 01          	addl   $0x1,-0x14(%ebp)
    1208:	83 7d ec 05          	cmpl   $0x5,-0x14(%ebp)
    120c:	7e df                	jle    11ed <phase_6+0x5d>
    120e:	83 45 f0 01          	addl   $0x1,-0x10(%ebp)
    1212:	83 7d f0 05          	cmpl   $0x5,-0x10(%ebp)
    1216:	7e ae                	jle    11c6 <phase_6+0x36>
    1218:	c7 45 f0 00 00 00 00 	movl   $0x0,-0x10(%ebp)
    121f:	eb 36                	jmp    1257 <phase_6+0xc7>
    1221:	8b 45 e8             	mov    -0x18(%ebp),%eax
    1224:	89 45 f4             	mov    %eax,-0xc(%ebp)
    1227:	c7 45 ec 01 00 00 00 	movl   $0x1,-0x14(%ebp)
    122e:	eb 0d                	jmp    123d <phase_6+0xad>
    1230:	8b 45 f4             	mov    -0xc(%ebp),%eax
    1233:	8b 40 08             	mov    0x8(%eax),%eax
    1236:	89 45 f4             	mov    %eax,-0xc(%ebp)
    1239:	83 45 ec 01          	addl   $0x1,-0x14(%ebp)
    123d:	8b 45 f0             	mov    -0x10(%ebp),%eax
    1240:	8b 44 85 d0          	mov    -0x30(%ebp,%eax,4),%eax
    1244:	3b 45 ec             	cmp    -0x14(%ebp),%eax
    1247:	7f e7                	jg     1230 <phase_6+0xa0>
    1249:	8b 45 f0             	mov    -0x10(%ebp),%eax
    124c:	8b 55 f4             	mov    -0xc(%ebp),%edx
    124f:	89 54 85 b8          	mov    %edx,-0x48(%ebp,%eax,4)
    1253:	83 45 f0 01          	addl   $0x1,-0x10(%ebp)
    1257:	83 7d f0 05          	cmpl   $0x5,-0x10(%ebp)
    125b:	7e c4                	jle    1221 <phase_6+0x91>
    125d:	8b 45 b8             	mov    -0x48(%ebp),%eax
    1260:	89 45 e8             	mov    %eax,-0x18(%ebp)
    1263:	8b 45 e8             	mov    -0x18(%ebp),%eax
    1266:	89 45 f4             	mov    %eax,-0xc(%ebp)
    1269:	c7 45 f0 01 00 00 00 	movl   $0x1,-0x10(%ebp)
    1270:	eb 1a                	jmp    128c <phase_6+0xfc>
    1272:	8b 45 f0             	mov    -0x10(%ebp),%eax
    1275:	8b 54 85 b8          	mov    -0x48(%ebp,%eax,4),%edx
    1279:	8b 45 f4             	mov    -0xc(%ebp),%eax
    127c:	89 50 08             	mov    %edx,0x8(%eax)
    127f:	8b 45 f4             	mov    -0xc(%ebp),%eax
    1282:	8b 40 08             	mov    0x8(%eax),%eax
    1285:	89 45 f4             	mov    %eax,-0xc(%ebp)
    1288:	83 45 f0 01          	addl   $0x1,-0x10(%ebp)
    128c:	83 7d f0 05          	cmpl   $0x5,-0x10(%ebp)
    1290:	7e e0                	jle    1272 <phase_6+0xe2>
    1292:	8b 45 f4             	mov    -0xc(%ebp),%eax
    1295:	c7 40 08 00 00 00 00 	movl   $0x0,0x8(%eax)
    129c:	8b 45 e8             	mov    -0x18(%ebp),%eax
    129f:	89 45 f4             	mov    %eax,-0xc(%ebp)
    12a2:	c7 45 f0 00 00 00 00 	movl   $0x0,-0x10(%ebp)
    12a9:	eb 23                	jmp    12ce <phase_6+0x13e>
    12ab:	8b 45 f4             	mov    -0xc(%ebp),%eax
    12ae:	8b 10                	mov    (%eax),%edx
    12b0:	8b 45 f4             	mov    -0xc(%ebp),%eax
    12b3:	8b 40 08             	mov    0x8(%eax),%eax
    12b6:	8b 00                	mov    (%eax),%eax
    12b8:	39 c2                	cmp    %eax,%edx
    12ba:	7e 05                	jle    12c1 <phase_6+0x131>
    12bc:	e8 b3 06 00 00       	call   1974 <explode_bomb>
    12c1:	8b 45 f4             	mov    -0xc(%ebp),%eax
    12c4:	8b 40 08             	mov    0x8(%eax),%eax
    12c7:	89 45 f4             	mov    %eax,-0xc(%ebp)
    12ca:	83 45 f0 01          	addl   $0x1,-0x10(%ebp)
    12ce:	83 7d f0 04          	cmpl   $0x4,-0x10(%ebp)
    12d2:	7e d7                	jle    12ab <phase_6+0x11b>
    12d4:	90                   	nop
    12d5:	8b 5d fc             	mov    -0x4(%ebp),%ebx
    12d8:	c9                   	leave  
    12d9:	c3                   	ret    

000012da <fun7>:
    12da:	55                   	push   %ebp
    12db:	89 e5                	mov    %esp,%ebp
    12dd:	83 ec 08             	sub    $0x8,%esp
    12e0:	e8 e1 00 00 00       	call   13c6 <__x86.get_pc_thunk.ax>
    12e5:	05 1b 3d 00 00       	add    $0x3d1b,%eax
    12ea:	83 7d 08 00          	cmpl   $0x0,0x8(%ebp)
    12ee:	75 07                	jne    12f7 <fun7+0x1d>
    12f0:	b8 ff ff ff ff       	mov    $0xffffffff,%eax
    12f5:	eb 4e                	jmp    1345 <fun7+0x6b>
    12f7:	8b 45 08             	mov    0x8(%ebp),%eax
    12fa:	8b 00                	mov    (%eax),%eax
    12fc:	3b 45 0c             	cmp    0xc(%ebp),%eax
    12ff:	7e 19                	jle    131a <fun7+0x40>
    1301:	8b 45 08             	mov    0x8(%ebp),%eax
    1304:	8b 40 04             	mov    0x4(%eax),%eax
    1307:	83 ec 08             	sub    $0x8,%esp
    130a:	ff 75 0c             	pushl  0xc(%ebp)
    130d:	50                   	push   %eax
    130e:	e8 c7 ff ff ff       	call   12da <fun7>
    1313:	83 c4 10             	add    $0x10,%esp
    1316:	01 c0                	add    %eax,%eax
    1318:	eb 2b                	jmp    1345 <fun7+0x6b>
    131a:	8b 45 08             	mov    0x8(%ebp),%eax
    131d:	8b 00                	mov    (%eax),%eax
    131f:	3b 45 0c             	cmp    0xc(%ebp),%eax
    1322:	75 07                	jne    132b <fun7+0x51>
    1324:	b8 00 00 00 00       	mov    $0x0,%eax
    1329:	eb 1a                	jmp    1345 <fun7+0x6b>
    132b:	8b 45 08             	mov    0x8(%ebp),%eax
    132e:	8b 40 08             	mov    0x8(%eax),%eax
    1331:	83 ec 08             	sub    $0x8,%esp
    1334:	ff 75 0c             	pushl  0xc(%ebp)
    1337:	50                   	push   %eax
    1338:	e8 9d ff ff ff       	call   12da <fun7>
    133d:	83 c4 10             	add    $0x10,%esp
    1340:	01 c0                	add    %eax,%eax
    1342:	83 c0 01             	add    $0x1,%eax
    1345:	c9                   	leave  
    1346:	c3                   	ret    

00001347 <secret_phase>:
    1347:	55                   	push   %ebp
    1348:	89 e5                	mov    %esp,%ebp
    134a:	53                   	push   %ebx
    134b:	83 ec 14             	sub    $0x14,%esp
    134e:	e8 2d f8 ff ff       	call   b80 <__x86.get_pc_thunk.bx>
    1353:	81 c3 ad 3c 00 00    	add    $0x3cad,%ebx
    1359:	e8 92 03 00 00       	call   16f0 <read_line>
    135e:	89 45 f4             	mov    %eax,-0xc(%ebp)
    1361:	83 ec 0c             	sub    $0xc,%esp
    1364:	ff 75 f4             	pushl  -0xc(%ebp)
    1367:	e8 64 f7 ff ff       	call   ad0 <atoi@plt>
    136c:	83 c4 10             	add    $0x10,%esp
    136f:	89 45 f0             	mov    %eax,-0x10(%ebp)
    1372:	83 7d f0 00          	cmpl   $0x0,-0x10(%ebp)
    1376:	7e 09                	jle    1381 <secret_phase+0x3a>
    1378:	81 7d f0 e9 03 00 00 	cmpl   $0x3e9,-0x10(%ebp)
    137f:	7e 05                	jle    1386 <secret_phase+0x3f>
    1381:	e8 ee 05 00 00       	call   1974 <explode_bomb>
    1386:	83 ec 08             	sub    $0x8,%esp
    1389:	ff 75 f0             	pushl  -0x10(%ebp)
    138c:	8d 83 e0 05 00 00    	lea    0x5e0(%ebx),%eax
    1392:	50                   	push   %eax
    1393:	e8 42 ff ff ff       	call   12da <fun7>
    1398:	83 c4 10             	add    $0x10,%esp
    139b:	89 45 ec             	mov    %eax,-0x14(%ebp)
    139e:	83 7d ec 01          	cmpl   $0x1,-0x14(%ebp)
    13a2:	74 05                	je     13a9 <secret_phase+0x62>
    13a4:	e8 cb 05 00 00       	call   1974 <explode_bomb>
    13a9:	83 ec 0c             	sub    $0xc,%esp
    13ac:	8d 83 e8 d9 ff ff    	lea    -0x2618(%ebx),%eax
    13b2:	50                   	push   %eax
    13b3:	e8 78 f6 ff ff       	call   a30 <puts@plt>
    13b8:	83 c4 10             	add    $0x10,%esp
    13bb:	e8 13 06 00 00       	call   19d3 <phase_defused>
    13c0:	90                   	nop
    13c1:	8b 5d fc             	mov    -0x4(%ebp),%ebx
    13c4:	c9                   	leave  
    13c5:	c3                   	ret    

000013c6 <__x86.get_pc_thunk.ax>:
    13c6:	8b 04 24             	mov    (%esp),%eax
    13c9:	c3                   	ret    

000013ca <sig_handler>:
    13ca:	55                   	push   %ebp
    13cb:	89 e5                	mov    %esp,%ebp
    13cd:	53                   	push   %ebx
    13ce:	83 ec 04             	sub    $0x4,%esp
    13d1:	e8 aa f7 ff ff       	call   b80 <__x86.get_pc_thunk.bx>
    13d6:	81 c3 2a 3c 00 00    	add    $0x3c2a,%ebx
    13dc:	83 ec 0c             	sub    $0xc,%esp
    13df:	8d 83 7c da ff ff    	lea    -0x2584(%ebx),%eax
    13e5:	50                   	push   %eax
    13e6:	e8 45 f6 ff ff       	call   a30 <puts@plt>
    13eb:	83 c4 10             	add    $0x10,%esp
    13ee:	83 ec 0c             	sub    $0xc,%esp
    13f1:	6a 03                	push   $0x3
    13f3:	e8 c8 f5 ff ff       	call   9c0 <sleep@plt>
    13f8:	83 c4 10             	add    $0x10,%esp
    13fb:	83 ec 0c             	sub    $0xc,%esp
    13fe:	8d 83 b4 da ff ff    	lea    -0x254c(%ebx),%eax
    1404:	50                   	push   %eax
    1405:	e8 56 f5 ff ff       	call   960 <printf@plt>
    140a:	83 c4 10             	add    $0x10,%esp
    140d:	8b 83 f0 ff ff ff    	mov    -0x10(%ebx),%eax
    1413:	8b 00                	mov    (%eax),%eax
    1415:	83 ec 0c             	sub    $0xc,%esp
    1418:	50                   	push   %eax
    1419:	e8 52 f5 ff ff       	call   970 <fflush@plt>
    141e:	83 c4 10             	add    $0x10,%esp
    1421:	83 ec 0c             	sub    $0xc,%esp
    1424:	6a 01                	push   $0x1
    1426:	e8 95 f5 ff ff       	call   9c0 <sleep@plt>
    142b:	83 c4 10             	add    $0x10,%esp
    142e:	83 ec 0c             	sub    $0xc,%esp
    1431:	8d 83 bc da ff ff    	lea    -0x2544(%ebx),%eax
    1437:	50                   	push   %eax
    1438:	e8 f3 f5 ff ff       	call   a30 <puts@plt>
    143d:	83 c4 10             	add    $0x10,%esp
    1440:	83 ec 0c             	sub    $0xc,%esp
    1443:	6a 10                	push   $0x10
    1445:	e8 f6 f5 ff ff       	call   a40 <exit@plt>

0000144a <invalid_phase>:
    144a:	55                   	push   %ebp
    144b:	89 e5                	mov    %esp,%ebp
    144d:	53                   	push   %ebx
    144e:	83 ec 04             	sub    $0x4,%esp
    1451:	e8 2a f7 ff ff       	call   b80 <__x86.get_pc_thunk.bx>
    1456:	81 c3 aa 3b 00 00    	add    $0x3baa,%ebx
    145c:	83 ec 08             	sub    $0x8,%esp
    145f:	ff 75 08             	pushl  0x8(%ebp)
    1462:	8d 83 c4 da ff ff    	lea    -0x253c(%ebx),%eax
    1468:	50                   	push   %eax
    1469:	e8 f2 f4 ff ff       	call   960 <printf@plt>
    146e:	83 c4 10             	add    $0x10,%esp
    1471:	83 ec 0c             	sub    $0xc,%esp
    1474:	6a 08                	push   $0x8
    1476:	e8 c5 f5 ff ff       	call   a40 <exit@plt>

0000147b <read_six_numbers>:
    147b:	55                   	push   %ebp
    147c:	89 e5                	mov    %esp,%ebp
    147e:	57                   	push   %edi
    147f:	56                   	push   %esi
    1480:	53                   	push   %ebx
    1481:	83 ec 1c             	sub    $0x1c,%esp
    1484:	e8 3d ff ff ff       	call   13c6 <__x86.get_pc_thunk.ax>
    1489:	05 77 3b 00 00       	add    $0x3b77,%eax
    148e:	8b 55 0c             	mov    0xc(%ebp),%edx
    1491:	8d 7a 14             	lea    0x14(%edx),%edi
    1494:	8b 55 0c             	mov    0xc(%ebp),%edx
    1497:	8d 72 10             	lea    0x10(%edx),%esi
    149a:	8b 55 0c             	mov    0xc(%ebp),%edx
    149d:	8d 5a 0c             	lea    0xc(%edx),%ebx
    14a0:	8b 55 0c             	mov    0xc(%ebp),%edx
    14a3:	8d 4a 08             	lea    0x8(%edx),%ecx
    14a6:	8b 55 0c             	mov    0xc(%ebp),%edx
    14a9:	83 c2 04             	add    $0x4,%edx
    14ac:	57                   	push   %edi
    14ad:	56                   	push   %esi
    14ae:	53                   	push   %ebx
    14af:	51                   	push   %ecx
    14b0:	52                   	push   %edx
    14b1:	ff 75 0c             	pushl  0xc(%ebp)
    14b4:	8d 90 d5 da ff ff    	lea    -0x252b(%eax),%edx
    14ba:	52                   	push   %edx
    14bb:	ff 75 08             	pushl  0x8(%ebp)
    14be:	89 c3                	mov    %eax,%ebx
    14c0:	e8 cb f5 ff ff       	call   a90 <__isoc99_sscanf@plt>
    14c5:	83 c4 20             	add    $0x20,%esp
    14c8:	89 45 e4             	mov    %eax,-0x1c(%ebp)
    14cb:	83 7d e4 05          	cmpl   $0x5,-0x1c(%ebp)
    14cf:	7f 05                	jg     14d6 <read_six_numbers+0x5b>
    14d1:	e8 9e 04 00 00       	call   1974 <explode_bomb>
    14d6:	90                   	nop
    14d7:	8d 65 f4             	lea    -0xc(%ebp),%esp
    14da:	5b                   	pop    %ebx
    14db:	5e                   	pop    %esi
    14dc:	5f                   	pop    %edi
    14dd:	5d                   	pop    %ebp
    14de:	c3                   	ret    

000014df <string_length>:
    14df:	55                   	push   %ebp
    14e0:	89 e5                	mov    %esp,%ebp
    14e2:	83 ec 10             	sub    $0x10,%esp
    14e5:	e8 dc fe ff ff       	call   13c6 <__x86.get_pc_thunk.ax>
    14ea:	05 16 3b 00 00       	add    $0x3b16,%eax
    14ef:	8b 45 08             	mov    0x8(%ebp),%eax
    14f2:	89 45 f8             	mov    %eax,-0x8(%ebp)
    14f5:	c7 45 fc 00 00 00 00 	movl   $0x0,-0x4(%ebp)
    14fc:	eb 08                	jmp    1506 <string_length+0x27>
    14fe:	83 45 f8 01          	addl   $0x1,-0x8(%ebp)
    1502:	83 45 fc 01          	addl   $0x1,-0x4(%ebp)
    1506:	8b 45 f8             	mov    -0x8(%ebp),%eax
    1509:	0f b6 00             	movzbl (%eax),%eax
    150c:	84 c0                	test   %al,%al
    150e:	75 ee                	jne    14fe <string_length+0x1f>
    1510:	8b 45 fc             	mov    -0x4(%ebp),%eax
    1513:	c9                   	leave  
    1514:	c3                   	ret    

00001515 <strings_not_equal>:
    1515:	55                   	push   %ebp
    1516:	89 e5                	mov    %esp,%ebp
    1518:	53                   	push   %ebx
    1519:	83 ec 10             	sub    $0x10,%esp
    151c:	e8 a5 fe ff ff       	call   13c6 <__x86.get_pc_thunk.ax>
    1521:	05 df 3a 00 00       	add    $0x3adf,%eax
    1526:	ff 75 08             	pushl  0x8(%ebp)
    1529:	e8 b1 ff ff ff       	call   14df <string_length>
    152e:	83 c4 04             	add    $0x4,%esp
    1531:	89 c3                	mov    %eax,%ebx
    1533:	ff 75 0c             	pushl  0xc(%ebp)
    1536:	e8 a4 ff ff ff       	call   14df <string_length>
    153b:	83 c4 04             	add    $0x4,%esp
    153e:	39 c3                	cmp    %eax,%ebx
    1540:	74 07                	je     1549 <strings_not_equal+0x34>
    1542:	b8 01 00 00 00       	mov    $0x1,%eax
    1547:	eb 3c                	jmp    1585 <strings_not_equal+0x70>
    1549:	8b 45 08             	mov    0x8(%ebp),%eax
    154c:	89 45 f8             	mov    %eax,-0x8(%ebp)
    154f:	8b 45 0c             	mov    0xc(%ebp),%eax
    1552:	89 45 f4             	mov    %eax,-0xc(%ebp)
    1555:	eb 1f                	jmp    1576 <strings_not_equal+0x61>
    1557:	8b 45 f8             	mov    -0x8(%ebp),%eax
    155a:	0f b6 10             	movzbl (%eax),%edx
    155d:	8b 45 f4             	mov    -0xc(%ebp),%eax
    1560:	0f b6 00             	movzbl (%eax),%eax
    1563:	38 c2                	cmp    %al,%dl
    1565:	74 07                	je     156e <strings_not_equal+0x59>
    1567:	b8 01 00 00 00       	mov    $0x1,%eax
    156c:	eb 17                	jmp    1585 <strings_not_equal+0x70>
    156e:	83 45 f8 01          	addl   $0x1,-0x8(%ebp)
    1572:	83 45 f4 01          	addl   $0x1,-0xc(%ebp)
    1576:	8b 45 f8             	mov    -0x8(%ebp),%eax
    1579:	0f b6 00             	movzbl (%eax),%eax
    157c:	84 c0                	test   %al,%al
    157e:	75 d7                	jne    1557 <strings_not_equal+0x42>
    1580:	b8 00 00 00 00       	mov    $0x0,%eax
    1585:	8b 5d fc             	mov    -0x4(%ebp),%ebx
    1588:	c9                   	leave  
    1589:	c3                   	ret    

0000158a <initialize_bomb>:
    158a:	55                   	push   %ebp
    158b:	89 e5                	mov    %esp,%ebp
    158d:	53                   	push   %ebx
    158e:	81 ec 44 20 00 00    	sub    $0x2044,%esp
    1594:	e8 e7 f5 ff ff       	call   b80 <__x86.get_pc_thunk.bx>
    1599:	81 c3 67 3a 00 00    	add    $0x3a67,%ebx
    159f:	83 ec 08             	sub    $0x8,%esp
    15a2:	8d 83 ca c3 ff ff    	lea    -0x3c36(%ebx),%eax
    15a8:	50                   	push   %eax
    15a9:	6a 02                	push   $0x2
    15ab:	e8 00 f4 ff ff       	call   9b0 <signal@plt>
    15b0:	83 c4 10             	add    $0x10,%esp
    15b3:	83 ec 08             	sub    $0x8,%esp
    15b6:	6a 40                	push   $0x40
    15b8:	8d 45 b8             	lea    -0x48(%ebp),%eax
    15bb:	50                   	push   %eax
    15bc:	e8 4f f4 ff ff       	call   a10 <gethostname@plt>
    15c1:	83 c4 10             	add    $0x10,%esp
    15c4:	85 c0                	test   %eax,%eax
    15c6:	74 1c                	je     15e4 <initialize_bomb+0x5a>
    15c8:	83 ec 0c             	sub    $0xc,%esp
    15cb:	8d 83 e8 da ff ff    	lea    -0x2518(%ebx),%eax
    15d1:	50                   	push   %eax
    15d2:	e8 59 f4 ff ff       	call   a30 <puts@plt>
    15d7:	83 c4 10             	add    $0x10,%esp
    15da:	83 ec 0c             	sub    $0xc,%esp
    15dd:	6a 08                	push   $0x8
    15df:	e8 5c f4 ff ff       	call   a40 <exit@plt>
    15e4:	83 ec 0c             	sub    $0xc,%esp
    15e7:	8d 85 b8 df ff ff    	lea    -0x2048(%ebp),%eax
    15ed:	50                   	push   %eax
    15ee:	e8 44 0f 00 00       	call   2537 <init_driver>
    15f3:	83 c4 10             	add    $0x10,%esp
    15f6:	85 c0                	test   %eax,%eax
    15f8:	79 23                	jns    161d <initialize_bomb+0x93>
    15fa:	83 ec 08             	sub    $0x8,%esp
    15fd:	8d 85 b8 df ff ff    	lea    -0x2048(%ebp),%eax
    1603:	50                   	push   %eax
    1604:	8d 83 1d db ff ff    	lea    -0x24e3(%ebx),%eax
    160a:	50                   	push   %eax
    160b:	e8 50 f3 ff ff       	call   960 <printf@plt>
    1610:	83 c4 10             	add    $0x10,%esp
    1613:	83 ec 0c             	sub    $0xc,%esp
    1616:	6a 08                	push   $0x8
    1618:	e8 23 f4 ff ff       	call   a40 <exit@plt>
    161d:	90                   	nop
    161e:	8b 5d fc             	mov    -0x4(%ebp),%ebx
    1621:	c9                   	leave  
    1622:	c3                   	ret    

00001623 <initialize_bomb_solve>:
    1623:	55                   	push   %ebp
    1624:	89 e5                	mov    %esp,%ebp
    1626:	e8 9b fd ff ff       	call   13c6 <__x86.get_pc_thunk.ax>
    162b:	05 d5 39 00 00       	add    $0x39d5,%eax
    1630:	90                   	nop
    1631:	5d                   	pop    %ebp
    1632:	c3                   	ret    

00001633 <blank_line>:
    1633:	55                   	push   %ebp
    1634:	89 e5                	mov    %esp,%ebp
    1636:	53                   	push   %ebx
    1637:	83 ec 04             	sub    $0x4,%esp
    163a:	e8 41 f5 ff ff       	call   b80 <__x86.get_pc_thunk.bx>
    163f:	81 c3 c1 39 00 00    	add    $0x39c1,%ebx
    1645:	eb 30                	jmp    1677 <blank_line+0x44>
    1647:	e8 d4 f4 ff ff       	call   b20 <__ctype_b_loc@plt>
    164c:	8b 08                	mov    (%eax),%ecx
    164e:	8b 45 08             	mov    0x8(%ebp),%eax
    1651:	8d 50 01             	lea    0x1(%eax),%edx
    1654:	89 55 08             	mov    %edx,0x8(%ebp)
    1657:	0f b6 00             	movzbl (%eax),%eax
    165a:	0f be c0             	movsbl %al,%eax
    165d:	01 c0                	add    %eax,%eax
    165f:	01 c8                	add    %ecx,%eax
    1661:	0f b7 00             	movzwl (%eax),%eax
    1664:	0f b7 c0             	movzwl %ax,%eax
    1667:	25 00 20 00 00       	and    $0x2000,%eax
    166c:	85 c0                	test   %eax,%eax
    166e:	75 07                	jne    1677 <blank_line+0x44>
    1670:	b8 00 00 00 00       	mov    $0x0,%eax
    1675:	eb 0f                	jmp    1686 <blank_line+0x53>
    1677:	8b 45 08             	mov    0x8(%ebp),%eax
    167a:	0f b6 00             	movzbl (%eax),%eax
    167d:	84 c0                	test   %al,%al
    167f:	75 c6                	jne    1647 <blank_line+0x14>
    1681:	b8 01 00 00 00       	mov    $0x1,%eax
    1686:	83 c4 04             	add    $0x4,%esp
    1689:	5b                   	pop    %ebx
    168a:	5d                   	pop    %ebp
    168b:	c3                   	ret    

0000168c <skip>:
    168c:	55                   	push   %ebp
    168d:	89 e5                	mov    %esp,%ebp
    168f:	53                   	push   %ebx
    1690:	83 ec 14             	sub    $0x14,%esp
    1693:	e8 e8 f4 ff ff       	call   b80 <__x86.get_pc_thunk.bx>
    1698:	81 c3 68 39 00 00    	add    $0x3968,%ebx
    169e:	8d 83 08 08 00 00    	lea    0x808(%ebx),%eax
    16a4:	8b 08                	mov    (%eax),%ecx
    16a6:	8b 93 04 08 00 00    	mov    0x804(%ebx),%edx
    16ac:	89 d0                	mov    %edx,%eax
    16ae:	c1 e0 02             	shl    $0x2,%eax
    16b1:	01 d0                	add    %edx,%eax
    16b3:	c1 e0 04             	shl    $0x4,%eax
    16b6:	8d 93 20 08 00 00    	lea    0x820(%ebx),%edx
    16bc:	01 d0                	add    %edx,%eax
    16be:	83 ec 04             	sub    $0x4,%esp
    16c1:	51                   	push   %ecx
    16c2:	6a 50                	push   $0x50
    16c4:	50                   	push   %eax
    16c5:	e8 d6 f2 ff ff       	call   9a0 <fgets@plt>
    16ca:	83 c4 10             	add    $0x10,%esp
    16cd:	89 45 f4             	mov    %eax,-0xc(%ebp)
    16d0:	83 7d f4 00          	cmpl   $0x0,-0xc(%ebp)
    16d4:	74 12                	je     16e8 <skip+0x5c>
    16d6:	83 ec 0c             	sub    $0xc,%esp
    16d9:	ff 75 f4             	pushl  -0xc(%ebp)
    16dc:	e8 52 ff ff ff       	call   1633 <blank_line>
    16e1:	83 c4 10             	add    $0x10,%esp
    16e4:	85 c0                	test   %eax,%eax
    16e6:	75 b6                	jne    169e <skip+0x12>
    16e8:	8b 45 f4             	mov    -0xc(%ebp),%eax
    16eb:	8b 5d fc             	mov    -0x4(%ebp),%ebx
    16ee:	c9                   	leave  
    16ef:	c3                   	ret    

000016f0 <read_line>:
    16f0:	55                   	push   %ebp
    16f1:	89 e5                	mov    %esp,%ebp
    16f3:	56                   	push   %esi
    16f4:	53                   	push   %ebx
    16f5:	83 ec 10             	sub    $0x10,%esp
    16f8:	e8 83 f4 ff ff       	call   b80 <__x86.get_pc_thunk.bx>
    16fd:	81 c3 03 39 00 00    	add    $0x3903,%ebx
    1703:	e8 84 ff ff ff       	call   168c <skip>
    1708:	89 45 f4             	mov    %eax,-0xc(%ebp)
    170b:	83 7d f4 00          	cmpl   $0x0,-0xc(%ebp)
    170f:	0f 85 8a 00 00 00    	jne    179f <read_line+0xaf>
    1715:	8d 83 08 08 00 00    	lea    0x808(%ebx),%eax
    171b:	8b 10                	mov    (%eax),%edx
    171d:	8b 83 ec ff ff ff    	mov    -0x14(%ebx),%eax
    1723:	8b 00                	mov    (%eax),%eax
    1725:	39 c2                	cmp    %eax,%edx
    1727:	75 1c                	jne    1745 <read_line+0x55>
    1729:	83 ec 0c             	sub    $0xc,%esp
    172c:	8d 83 37 db ff ff    	lea    -0x24c9(%ebx),%eax
    1732:	50                   	push   %eax
    1733:	e8 f8 f2 ff ff       	call   a30 <puts@plt>
    1738:	83 c4 10             	add    $0x10,%esp
    173b:	83 ec 0c             	sub    $0xc,%esp
    173e:	6a 08                	push   $0x8
    1740:	e8 fb f2 ff ff       	call   a40 <exit@plt>
    1745:	83 ec 0c             	sub    $0xc,%esp
    1748:	8d 83 55 db ff ff    	lea    -0x24ab(%ebx),%eax
    174e:	50                   	push   %eax
    174f:	e8 cc f2 ff ff       	call   a20 <getenv@plt>
    1754:	83 c4 10             	add    $0x10,%esp
    1757:	85 c0                	test   %eax,%eax
    1759:	74 0a                	je     1765 <read_line+0x75>
    175b:	83 ec 0c             	sub    $0xc,%esp
    175e:	6a 00                	push   $0x0
    1760:	e8 db f2 ff ff       	call   a40 <exit@plt>
    1765:	8b 83 ec ff ff ff    	mov    -0x14(%ebx),%eax
    176b:	8b 10                	mov    (%eax),%edx
    176d:	8d 83 08 08 00 00    	lea    0x808(%ebx),%eax
    1773:	89 10                	mov    %edx,(%eax)
    1775:	e8 12 ff ff ff       	call   168c <skip>
    177a:	89 45 f4             	mov    %eax,-0xc(%ebp)
    177d:	83 7d f4 00          	cmpl   $0x0,-0xc(%ebp)
    1781:	75 1c                	jne    179f <read_line+0xaf>
    1783:	83 ec 0c             	sub    $0xc,%esp
    1786:	8d 83 37 db ff ff    	lea    -0x24c9(%ebx),%eax
    178c:	50                   	push   %eax
    178d:	e8 9e f2 ff ff       	call   a30 <puts@plt>
    1792:	83 c4 10             	add    $0x10,%esp
    1795:	83 ec 0c             	sub    $0xc,%esp
    1798:	6a 00                	push   $0x0
    179a:	e8 a1 f2 ff ff       	call   a40 <exit@plt>
    179f:	8b 93 04 08 00 00    	mov    0x804(%ebx),%edx
    17a5:	89 d0                	mov    %edx,%eax
    17a7:	c1 e0 02             	shl    $0x2,%eax
    17aa:	01 d0                	add    %edx,%eax
    17ac:	c1 e0 04             	shl    $0x4,%eax
    17af:	8d 93 20 08 00 00    	lea    0x820(%ebx),%edx
    17b5:	01 d0                	add    %edx,%eax
    17b7:	83 ec 0c             	sub    $0xc,%esp
    17ba:	50                   	push   %eax
    17bb:	e8 90 f2 ff ff       	call   a50 <strlen@plt>
    17c0:	83 c4 10             	add    $0x10,%esp
    17c3:	89 45 f0             	mov    %eax,-0x10(%ebp)
    17c6:	83 7d f0 4e          	cmpl   $0x4e,-0x10(%ebp)
    17ca:	7e 53                	jle    181f <read_line+0x12f>
    17cc:	83 ec 0c             	sub    $0xc,%esp
    17cf:	8d 83 60 db ff ff    	lea    -0x24a0(%ebx),%eax
    17d5:	50                   	push   %eax
    17d6:	e8 55 f2 ff ff       	call   a30 <puts@plt>
    17db:	83 c4 10             	add    $0x10,%esp
    17de:	8b 93 04 08 00 00    	mov    0x804(%ebx),%edx
    17e4:	8d 42 01             	lea    0x1(%edx),%eax
    17e7:	89 83 04 08 00 00    	mov    %eax,0x804(%ebx)
    17ed:	89 d0                	mov    %edx,%eax
    17ef:	c1 e0 02             	shl    $0x2,%eax
    17f2:	01 d0                	add    %edx,%eax
    17f4:	c1 e0 04             	shl    $0x4,%eax
    17f7:	8d 93 20 08 00 00    	lea    0x820(%ebx),%edx
    17fd:	01 d0                	add    %edx,%eax
    17ff:	c7 00 2a 2a 2a 74    	movl   $0x742a2a2a,(%eax)
    1805:	c7 40 04 72 75 6e 63 	movl   $0x636e7572,0x4(%eax)
    180c:	c7 40 08 61 74 65 64 	movl   $0x64657461,0x8(%eax)
    1813:	c7 40 0c 2a 2a 2a 00 	movl   $0x2a2a2a,0xc(%eax)
    181a:	e8 55 01 00 00       	call   1974 <explode_bomb>
    181f:	8b 93 04 08 00 00    	mov    0x804(%ebx),%edx
    1825:	8b 45 f0             	mov    -0x10(%ebp),%eax
    1828:	8d 70 ff             	lea    -0x1(%eax),%esi
    182b:	8d 8b 20 08 00 00    	lea    0x820(%ebx),%ecx
    1831:	89 d0                	mov    %edx,%eax
    1833:	c1 e0 02             	shl    $0x2,%eax
    1836:	01 d0                	add    %edx,%eax
    1838:	c1 e0 04             	shl    $0x4,%eax
    183b:	01 c8                	add    %ecx,%eax
    183d:	01 f0                	add    %esi,%eax
    183f:	c6 00 00             	movb   $0x0,(%eax)
    1842:	8b 93 04 08 00 00    	mov    0x804(%ebx),%edx
    1848:	8d 42 01             	lea    0x1(%edx),%eax
    184b:	89 83 04 08 00 00    	mov    %eax,0x804(%ebx)
    1851:	89 d0                	mov    %edx,%eax
    1853:	c1 e0 02             	shl    $0x2,%eax
    1856:	01 d0                	add    %edx,%eax
    1858:	c1 e0 04             	shl    $0x4,%eax
    185b:	8d 93 20 08 00 00    	lea    0x820(%ebx),%edx
    1861:	01 d0                	add    %edx,%eax
    1863:	8d 65 f8             	lea    -0x8(%ebp),%esp
    1866:	5b                   	pop    %ebx
    1867:	5e                   	pop    %esi
    1868:	5d                   	pop    %ebp
    1869:	c3                   	ret    

0000186a <send_msg>:
    186a:	55                   	push   %ebp
    186b:	89 e5                	mov    %esp,%ebp
    186d:	56                   	push   %esi
    186e:	53                   	push   %ebx
    186f:	81 ec 10 40 00 00    	sub    $0x4010,%esp
    1875:	e8 06 f3 ff ff       	call   b80 <__x86.get_pc_thunk.bx>
    187a:	81 c3 86 37 00 00    	add    $0x3786,%ebx
    1880:	8b 83 04 08 00 00    	mov    0x804(%ebx),%eax
    1886:	8d 50 ff             	lea    -0x1(%eax),%edx
    1889:	89 d0                	mov    %edx,%eax
    188b:	c1 e0 02             	shl    $0x2,%eax
    188e:	01 d0                	add    %edx,%eax
    1890:	c1 e0 04             	shl    $0x4,%eax
    1893:	8d 93 20 08 00 00    	lea    0x820(%ebx),%edx
    1899:	01 d0                	add    %edx,%eax
    189b:	83 ec 0c             	sub    $0xc,%esp
    189e:	50                   	push   %eax
    189f:	e8 ac f1 ff ff       	call   a50 <strlen@plt>
    18a4:	83 c4 10             	add    $0x10,%esp
    18a7:	83 c0 64             	add    $0x64,%eax
    18aa:	3d 00 20 00 00       	cmp    $0x2000,%eax
    18af:	76 1c                	jbe    18cd <send_msg+0x63>
    18b1:	83 ec 0c             	sub    $0xc,%esp
    18b4:	8d 83 7c db ff ff    	lea    -0x2484(%ebx),%eax
    18ba:	50                   	push   %eax
    18bb:	e8 a0 f0 ff ff       	call   960 <printf@plt>
    18c0:	83 c4 10             	add    $0x10,%esp
    18c3:	83 ec 0c             	sub    $0xc,%esp
    18c6:	6a 08                	push   $0x8
    18c8:	e8 73 f1 ff ff       	call   a40 <exit@plt>
    18cd:	8b 83 04 08 00 00    	mov    0x804(%ebx),%eax
    18d3:	8d 50 ff             	lea    -0x1(%eax),%edx
    18d6:	89 d0                	mov    %edx,%eax
    18d8:	c1 e0 02             	shl    $0x2,%eax
    18db:	01 d0                	add    %edx,%eax
    18dd:	c1 e0 04             	shl    $0x4,%eax
    18e0:	8d 93 20 08 00 00    	lea    0x820(%ebx),%edx
    18e6:	8d 34 10             	lea    (%eax,%edx,1),%esi
    18e9:	8b 8b 04 08 00 00    	mov    0x804(%ebx),%ecx
    18ef:	83 7d 08 00          	cmpl   $0x0,0x8(%ebp)
    18f3:	74 08                	je     18fd <send_msg+0x93>
    18f5:	8d 83 9e db ff ff    	lea    -0x2462(%ebx),%eax
    18fb:	eb 06                	jmp    1903 <send_msg+0x99>
    18fd:	8d 83 a6 db ff ff    	lea    -0x245a(%ebx),%eax
    1903:	8d 93 c0 00 00 00    	lea    0xc0(%ebx),%edx
    1909:	8b 12                	mov    (%edx),%edx
    190b:	83 ec 08             	sub    $0x8,%esp
    190e:	56                   	push   %esi
    190f:	51                   	push   %ecx
    1910:	50                   	push   %eax
    1911:	52                   	push   %edx
    1912:	8d 83 af db ff ff    	lea    -0x2451(%ebx),%eax
    1918:	50                   	push   %eax
    1919:	8d 85 f4 df ff ff    	lea    -0x200c(%ebp),%eax
    191f:	50                   	push   %eax
    1920:	e8 9b f1 ff ff       	call   ac0 <sprintf@plt>
    1925:	83 c4 20             	add    $0x20,%esp
    1928:	8d 85 f4 bf ff ff    	lea    -0x400c(%ebp),%eax
    192e:	50                   	push   %eax
    192f:	6a 00                	push   $0x0
    1931:	8d 85 f4 df ff ff    	lea    -0x200c(%ebp),%eax
    1937:	50                   	push   %eax
    1938:	8d 83 e0 00 00 00    	lea    0xe0(%ebx),%eax
    193e:	50                   	push   %eax
    193f:	e8 ef 0d 00 00       	call   2733 <driver_post>
    1944:	83 c4 10             	add    $0x10,%esp
    1947:	89 45 f4             	mov    %eax,-0xc(%ebp)
    194a:	83 7d f4 00          	cmpl   $0x0,-0xc(%ebp)
    194e:	79 1c                	jns    196c <send_msg+0x102>
    1950:	83 ec 0c             	sub    $0xc,%esp
    1953:	8d 85 f4 bf ff ff    	lea    -0x400c(%ebp),%eax
    1959:	50                   	push   %eax
    195a:	e8 d1 f0 ff ff       	call   a30 <puts@plt>
    195f:	83 c4 10             	add    $0x10,%esp
    1962:	83 ec 0c             	sub    $0xc,%esp
    1965:	6a 00                	push   $0x0
    1967:	e8 d4 f0 ff ff       	call   a40 <exit@plt>
    196c:	90                   	nop
    196d:	8d 65 f8             	lea    -0x8(%ebp),%esp
    1970:	5b                   	pop    %ebx
    1971:	5e                   	pop    %esi
    1972:	5d                   	pop    %ebp
    1973:	c3                   	ret    

00001974 <explode_bomb>:
    1974:	55                   	push   %ebp
    1975:	89 e5                	mov    %esp,%ebp
    1977:	53                   	push   %ebx
    1978:	83 ec 04             	sub    $0x4,%esp
    197b:	e8 00 f2 ff ff       	call   b80 <__x86.get_pc_thunk.bx>
    1980:	81 c3 80 36 00 00    	add    $0x3680,%ebx
    1986:	83 ec 0c             	sub    $0xc,%esp
    1989:	8d 83 bb db ff ff    	lea    -0x2445(%ebx),%eax
    198f:	50                   	push   %eax
    1990:	e8 9b f0 ff ff       	call   a30 <puts@plt>
    1995:	83 c4 10             	add    $0x10,%esp
    1998:	83 ec 0c             	sub    $0xc,%esp
    199b:	8d 83 c4 db ff ff    	lea    -0x243c(%ebx),%eax
    19a1:	50                   	push   %eax
    19a2:	e8 89 f0 ff ff       	call   a30 <puts@plt>
    19a7:	83 c4 10             	add    $0x10,%esp
    19aa:	83 ec 0c             	sub    $0xc,%esp
    19ad:	6a 00                	push   $0x0
    19af:	e8 b6 fe ff ff       	call   186a <send_msg>
    19b4:	83 c4 10             	add    $0x10,%esp
    19b7:	83 ec 0c             	sub    $0xc,%esp
    19ba:	8d 83 dc db ff ff    	lea    -0x2424(%ebx),%eax
    19c0:	50                   	push   %eax
    19c1:	e8 6a f0 ff ff       	call   a30 <puts@plt>
    19c6:	83 c4 10             	add    $0x10,%esp
    19c9:	83 ec 0c             	sub    $0xc,%esp
    19cc:	6a 08                	push   $0x8
    19ce:	e8 6d f0 ff ff       	call   a40 <exit@plt>

000019d3 <phase_defused>:
    19d3:	55                   	push   %ebp
    19d4:	89 e5                	mov    %esp,%ebp
    19d6:	53                   	push   %ebx
    19d7:	83 ec 64             	sub    $0x64,%esp
    19da:	e8 a1 f1 ff ff       	call   b80 <__x86.get_pc_thunk.bx>
    19df:	81 c3 21 36 00 00    	add    $0x3621,%ebx
    19e5:	83 ec 0c             	sub    $0xc,%esp
    19e8:	6a 01                	push   $0x1
    19ea:	e8 7b fe ff ff       	call   186a <send_msg>
    19ef:	83 c4 10             	add    $0x10,%esp
    19f2:	8b 83 04 08 00 00    	mov    0x804(%ebx),%eax
    19f8:	83 f8 06             	cmp    $0x6,%eax
    19fb:	0f 85 9b 00 00 00    	jne    1a9c <phase_defused+0xc9>
    1a01:	83 ec 0c             	sub    $0xc,%esp
    1a04:	8d 45 a4             	lea    -0x5c(%ebp),%eax
    1a07:	50                   	push   %eax
    1a08:	8d 45 9c             	lea    -0x64(%ebp),%eax
    1a0b:	50                   	push   %eax
    1a0c:	8d 45 a0             	lea    -0x60(%ebp),%eax
    1a0f:	50                   	push   %eax
    1a10:	8d 83 ff db ff ff    	lea    -0x2401(%ebx),%eax
    1a16:	50                   	push   %eax
    1a17:	8d 83 20 08 00 00    	lea    0x820(%ebx),%eax
    1a1d:	8d 80 f0 00 00 00    	lea    0xf0(%eax),%eax
    1a23:	50                   	push   %eax
    1a24:	e8 67 f0 ff ff       	call   a90 <__isoc99_sscanf@plt>
    1a29:	83 c4 20             	add    $0x20,%esp
    1a2c:	89 45 f4             	mov    %eax,-0xc(%ebp)
    1a2f:	83 7d f4 03          	cmpl   $0x3,-0xc(%ebp)
    1a33:	75 43                	jne    1a78 <phase_defused+0xa5>
    1a35:	83 ec 08             	sub    $0x8,%esp
    1a38:	8d 83 08 dc ff ff    	lea    -0x23f8(%ebx),%eax
    1a3e:	50                   	push   %eax
    1a3f:	8d 45 a4             	lea    -0x5c(%ebp),%eax
    1a42:	50                   	push   %eax
    1a43:	e8 cd fa ff ff       	call   1515 <strings_not_equal>
    1a48:	83 c4 10             	add    $0x10,%esp
    1a4b:	85 c0                	test   %eax,%eax
    1a4d:	75 29                	jne    1a78 <phase_defused+0xa5>
    1a4f:	83 ec 0c             	sub    $0xc,%esp
    1a52:	8d 83 10 dc ff ff    	lea    -0x23f0(%ebx),%eax
    1a58:	50                   	push   %eax
    1a59:	e8 d2 ef ff ff       	call   a30 <puts@plt>
    1a5e:	83 c4 10             	add    $0x10,%esp
    1a61:	83 ec 0c             	sub    $0xc,%esp
    1a64:	8d 83 38 dc ff ff    	lea    -0x23c8(%ebx),%eax
    1a6a:	50                   	push   %eax
    1a6b:	e8 c0 ef ff ff       	call   a30 <puts@plt>
    1a70:	83 c4 10             	add    $0x10,%esp
    1a73:	e8 cf f8 ff ff       	call   1347 <secret_phase>
    1a78:	83 ec 0c             	sub    $0xc,%esp
    1a7b:	8d 83 70 dc ff ff    	lea    -0x2390(%ebx),%eax
    1a81:	50                   	push   %eax
    1a82:	e8 a9 ef ff ff       	call   a30 <puts@plt>
    1a87:	83 c4 10             	add    $0x10,%esp
    1a8a:	83 ec 0c             	sub    $0xc,%esp
    1a8d:	8d 83 9c dc ff ff    	lea    -0x2364(%ebx),%eax
    1a93:	50                   	push   %eax
    1a94:	e8 97 ef ff ff       	call   a30 <puts@plt>
    1a99:	83 c4 10             	add    $0x10,%esp
    1a9c:	90                   	nop
    1a9d:	8b 5d fc             	mov    -0x4(%ebp),%ebx
    1aa0:	c9                   	leave  
    1aa1:	c3                   	ret    

00001aa2 <sigalrm_handler>:
    1aa2:	55                   	push   %ebp
    1aa3:	89 e5                	mov    %esp,%ebp
    1aa5:	53                   	push   %ebx
    1aa6:	83 ec 04             	sub    $0x4,%esp
    1aa9:	e8 d2 f0 ff ff       	call   b80 <__x86.get_pc_thunk.bx>
    1aae:	81 c3 52 35 00 00    	add    $0x3552,%ebx
    1ab4:	8b 83 e0 ff ff ff    	mov    -0x20(%ebx),%eax
    1aba:	8b 00                	mov    (%eax),%eax
    1abc:	83 ec 04             	sub    $0x4,%esp
    1abf:	6a 00                	push   $0x0
    1ac1:	8d 93 e0 dc ff ff    	lea    -0x2320(%ebx),%edx
    1ac7:	52                   	push   %edx
    1ac8:	50                   	push   %eax
    1ac9:	e8 a2 ef ff ff       	call   a70 <fprintf@plt>
    1ace:	83 c4 10             	add    $0x10,%esp
    1ad1:	83 ec 0c             	sub    $0xc,%esp
    1ad4:	6a 01                	push   $0x1
    1ad6:	e8 65 ef ff ff       	call   a40 <exit@plt>

00001adb <rio_readinitb>:
    1adb:	55                   	push   %ebp
    1adc:	89 e5                	mov    %esp,%ebp
    1ade:	e8 e3 f8 ff ff       	call   13c6 <__x86.get_pc_thunk.ax>
    1ae3:	05 1d 35 00 00       	add    $0x351d,%eax
    1ae8:	8b 45 08             	mov    0x8(%ebp),%eax
    1aeb:	8b 55 0c             	mov    0xc(%ebp),%edx
    1aee:	89 10                	mov    %edx,(%eax)
    1af0:	8b 45 08             	mov    0x8(%ebp),%eax
    1af3:	c7 40 04 00 00 00 00 	movl   $0x0,0x4(%eax)
    1afa:	8b 45 08             	mov    0x8(%ebp),%eax
    1afd:	8d 50 0c             	lea    0xc(%eax),%edx
    1b00:	8b 45 08             	mov    0x8(%ebp),%eax
    1b03:	89 50 08             	mov    %edx,0x8(%eax)
    1b06:	90                   	nop
    1b07:	5d                   	pop    %ebp
    1b08:	c3                   	ret    

00001b09 <rio_read>:
    1b09:	55                   	push   %ebp
    1b0a:	89 e5                	mov    %esp,%ebp
    1b0c:	53                   	push   %ebx
    1b0d:	83 ec 14             	sub    $0x14,%esp
    1b10:	e8 6b f0 ff ff       	call   b80 <__x86.get_pc_thunk.bx>
    1b15:	81 c3 eb 34 00 00    	add    $0x34eb,%ebx
    1b1b:	eb 5f                	jmp    1b7c <rio_read+0x73>
    1b1d:	8b 45 08             	mov    0x8(%ebp),%eax
    1b20:	8d 50 0c             	lea    0xc(%eax),%edx
    1b23:	8b 45 08             	mov    0x8(%ebp),%eax
    1b26:	8b 00                	mov    (%eax),%eax
    1b28:	83 ec 04             	sub    $0x4,%esp
    1b2b:	68 00 20 00 00       	push   $0x2000
    1b30:	52                   	push   %edx
    1b31:	50                   	push   %eax
    1b32:	e8 19 ee ff ff       	call   950 <read@plt>
    1b37:	83 c4 10             	add    $0x10,%esp
    1b3a:	89 c2                	mov    %eax,%edx
    1b3c:	8b 45 08             	mov    0x8(%ebp),%eax
    1b3f:	89 50 04             	mov    %edx,0x4(%eax)
    1b42:	8b 45 08             	mov    0x8(%ebp),%eax
    1b45:	8b 40 04             	mov    0x4(%eax),%eax
    1b48:	85 c0                	test   %eax,%eax
    1b4a:	79 13                	jns    1b5f <rio_read+0x56>
    1b4c:	e8 5f ef ff ff       	call   ab0 <__errno_location@plt>
    1b51:	8b 00                	mov    (%eax),%eax
    1b53:	83 f8 04             	cmp    $0x4,%eax
    1b56:	74 24                	je     1b7c <rio_read+0x73>
    1b58:	b8 ff ff ff ff       	mov    $0xffffffff,%eax
    1b5d:	eb 7f                	jmp    1bde <rio_read+0xd5>
    1b5f:	8b 45 08             	mov    0x8(%ebp),%eax
    1b62:	8b 40 04             	mov    0x4(%eax),%eax
    1b65:	85 c0                	test   %eax,%eax
    1b67:	75 07                	jne    1b70 <rio_read+0x67>
    1b69:	b8 00 00 00 00       	mov    $0x0,%eax
    1b6e:	eb 6e                	jmp    1bde <rio_read+0xd5>
    1b70:	8b 45 08             	mov    0x8(%ebp),%eax
    1b73:	8d 50 0c             	lea    0xc(%eax),%edx
    1b76:	8b 45 08             	mov    0x8(%ebp),%eax
    1b79:	89 50 08             	mov    %edx,0x8(%eax)
    1b7c:	8b 45 08             	mov    0x8(%ebp),%eax
    1b7f:	8b 40 04             	mov    0x4(%eax),%eax
    1b82:	85 c0                	test   %eax,%eax
    1b84:	7e 97                	jle    1b1d <rio_read+0x14>
    1b86:	8b 45 10             	mov    0x10(%ebp),%eax
    1b89:	89 45 f4             	mov    %eax,-0xc(%ebp)
    1b8c:	8b 45 08             	mov    0x8(%ebp),%eax
    1b8f:	8b 40 04             	mov    0x4(%eax),%eax
    1b92:	3b 45 10             	cmp    0x10(%ebp),%eax
    1b95:	73 09                	jae    1ba0 <rio_read+0x97>
    1b97:	8b 45 08             	mov    0x8(%ebp),%eax
    1b9a:	8b 40 04             	mov    0x4(%eax),%eax
    1b9d:	89 45 f4             	mov    %eax,-0xc(%ebp)
    1ba0:	8b 55 f4             	mov    -0xc(%ebp),%edx
    1ba3:	8b 45 08             	mov    0x8(%ebp),%eax
    1ba6:	8b 40 08             	mov    0x8(%eax),%eax
    1ba9:	83 ec 04             	sub    $0x4,%esp
    1bac:	52                   	push   %edx
    1bad:	50                   	push   %eax
    1bae:	ff 75 0c             	pushl  0xc(%ebp)
    1bb1:	e8 ca ed ff ff       	call   980 <memcpy@plt>
    1bb6:	83 c4 10             	add    $0x10,%esp
    1bb9:	8b 45 08             	mov    0x8(%ebp),%eax
    1bbc:	8b 50 08             	mov    0x8(%eax),%edx
    1bbf:	8b 45 f4             	mov    -0xc(%ebp),%eax
    1bc2:	01 c2                	add    %eax,%edx
    1bc4:	8b 45 08             	mov    0x8(%ebp),%eax
    1bc7:	89 50 08             	mov    %edx,0x8(%eax)
    1bca:	8b 45 08             	mov    0x8(%ebp),%eax
    1bcd:	8b 40 04             	mov    0x4(%eax),%eax
    1bd0:	2b 45 f4             	sub    -0xc(%ebp),%eax
    1bd3:	89 c2                	mov    %eax,%edx
    1bd5:	8b 45 08             	mov    0x8(%ebp),%eax
    1bd8:	89 50 04             	mov    %edx,0x4(%eax)
    1bdb:	8b 45 f4             	mov    -0xc(%ebp),%eax
    1bde:	8b 5d fc             	mov    -0x4(%ebp),%ebx
    1be1:	c9                   	leave  
    1be2:	c3                   	ret    

00001be3 <rio_readlineb>:
    1be3:	55                   	push   %ebp
    1be4:	89 e5                	mov    %esp,%ebp
    1be6:	83 ec 18             	sub    $0x18,%esp
    1be9:	e8 d8 f7 ff ff       	call   13c6 <__x86.get_pc_thunk.ax>
    1bee:	05 12 34 00 00       	add    $0x3412,%eax
    1bf3:	8b 45 0c             	mov    0xc(%ebp),%eax
    1bf6:	89 45 f0             	mov    %eax,-0x10(%ebp)
    1bf9:	c7 45 f4 01 00 00 00 	movl   $0x1,-0xc(%ebp)
    1c00:	eb 54                	jmp    1c56 <rio_readlineb+0x73>
    1c02:	83 ec 04             	sub    $0x4,%esp
    1c05:	6a 01                	push   $0x1
    1c07:	8d 45 eb             	lea    -0x15(%ebp),%eax
    1c0a:	50                   	push   %eax
    1c0b:	ff 75 08             	pushl  0x8(%ebp)
    1c0e:	e8 f6 fe ff ff       	call   1b09 <rio_read>
    1c13:	83 c4 10             	add    $0x10,%esp
    1c16:	89 45 ec             	mov    %eax,-0x14(%ebp)
    1c19:	83 7d ec 01          	cmpl   $0x1,-0x14(%ebp)
    1c1d:	75 19                	jne    1c38 <rio_readlineb+0x55>
    1c1f:	8b 45 f0             	mov    -0x10(%ebp),%eax
    1c22:	8d 50 01             	lea    0x1(%eax),%edx
    1c25:	89 55 f0             	mov    %edx,-0x10(%ebp)
    1c28:	0f b6 55 eb          	movzbl -0x15(%ebp),%edx
    1c2c:	88 10                	mov    %dl,(%eax)
    1c2e:	0f b6 45 eb          	movzbl -0x15(%ebp),%eax
    1c32:	3c 0a                	cmp    $0xa,%al
    1c34:	75 1c                	jne    1c52 <rio_readlineb+0x6f>
    1c36:	eb 29                	jmp    1c61 <rio_readlineb+0x7e>
    1c38:	83 7d ec 00          	cmpl   $0x0,-0x14(%ebp)
    1c3c:	75 0d                	jne    1c4b <rio_readlineb+0x68>
    1c3e:	83 7d f4 01          	cmpl   $0x1,-0xc(%ebp)
    1c42:	75 1c                	jne    1c60 <rio_readlineb+0x7d>
    1c44:	b8 00 00 00 00       	mov    $0x0,%eax
    1c49:	eb 1f                	jmp    1c6a <rio_readlineb+0x87>
    1c4b:	b8 ff ff ff ff       	mov    $0xffffffff,%eax
    1c50:	eb 18                	jmp    1c6a <rio_readlineb+0x87>
    1c52:	83 45 f4 01          	addl   $0x1,-0xc(%ebp)
    1c56:	8b 45 f4             	mov    -0xc(%ebp),%eax
    1c59:	3b 45 10             	cmp    0x10(%ebp),%eax
    1c5c:	72 a4                	jb     1c02 <rio_readlineb+0x1f>
    1c5e:	eb 01                	jmp    1c61 <rio_readlineb+0x7e>
    1c60:	90                   	nop
    1c61:	8b 45 f0             	mov    -0x10(%ebp),%eax
    1c64:	c6 00 00             	movb   $0x0,(%eax)
    1c67:	8b 45 f4             	mov    -0xc(%ebp),%eax
    1c6a:	c9                   	leave  
    1c6b:	c3                   	ret    

00001c6c <rio_writen>:
    1c6c:	55                   	push   %ebp
    1c6d:	89 e5                	mov    %esp,%ebp
    1c6f:	53                   	push   %ebx
    1c70:	83 ec 14             	sub    $0x14,%esp
    1c73:	e8 08 ef ff ff       	call   b80 <__x86.get_pc_thunk.bx>
    1c78:	81 c3 88 33 00 00    	add    $0x3388,%ebx
    1c7e:	8b 45 10             	mov    0x10(%ebp),%eax
    1c81:	89 45 f4             	mov    %eax,-0xc(%ebp)
    1c84:	8b 45 0c             	mov    0xc(%ebp),%eax
    1c87:	89 45 ec             	mov    %eax,-0x14(%ebp)
    1c8a:	eb 45                	jmp    1cd1 <rio_writen+0x65>
    1c8c:	83 ec 04             	sub    $0x4,%esp
    1c8f:	ff 75 f4             	pushl  -0xc(%ebp)
    1c92:	ff 75 ec             	pushl  -0x14(%ebp)
    1c95:	ff 75 08             	pushl  0x8(%ebp)
    1c98:	e8 e3 ed ff ff       	call   a80 <write@plt>
    1c9d:	83 c4 10             	add    $0x10,%esp
    1ca0:	89 45 f0             	mov    %eax,-0x10(%ebp)
    1ca3:	83 7d f0 00          	cmpl   $0x0,-0x10(%ebp)
    1ca7:	7f 1c                	jg     1cc5 <rio_writen+0x59>
    1ca9:	e8 02 ee ff ff       	call   ab0 <__errno_location@plt>
    1cae:	8b 00                	mov    (%eax),%eax
    1cb0:	83 f8 04             	cmp    $0x4,%eax
    1cb3:	75 09                	jne    1cbe <rio_writen+0x52>
    1cb5:	c7 45 f0 00 00 00 00 	movl   $0x0,-0x10(%ebp)
    1cbc:	eb 07                	jmp    1cc5 <rio_writen+0x59>
    1cbe:	b8 ff ff ff ff       	mov    $0xffffffff,%eax
    1cc3:	eb 15                	jmp    1cda <rio_writen+0x6e>
    1cc5:	8b 45 f0             	mov    -0x10(%ebp),%eax
    1cc8:	29 45 f4             	sub    %eax,-0xc(%ebp)
    1ccb:	8b 45 f0             	mov    -0x10(%ebp),%eax
    1cce:	01 45 ec             	add    %eax,-0x14(%ebp)
    1cd1:	83 7d f4 00          	cmpl   $0x0,-0xc(%ebp)
    1cd5:	75 b5                	jne    1c8c <rio_writen+0x20>
    1cd7:	8b 45 10             	mov    0x10(%ebp),%eax
    1cda:	8b 5d fc             	mov    -0x4(%ebp),%ebx
    1cdd:	c9                   	leave  
    1cde:	c3                   	ret    

00001cdf <urlencode>:
    1cdf:	55                   	push   %ebp
    1ce0:	89 e5                	mov    %esp,%ebp
    1ce2:	53                   	push   %ebx
    1ce3:	83 ec 14             	sub    $0x14,%esp
    1ce6:	e8 95 ee ff ff       	call   b80 <__x86.get_pc_thunk.bx>
    1ceb:	81 c3 15 33 00 00    	add    $0x3315,%ebx
    1cf1:	83 ec 0c             	sub    $0xc,%esp
    1cf4:	ff 75 08             	pushl  0x8(%ebp)
    1cf7:	e8 54 ed ff ff       	call   a50 <strlen@plt>
    1cfc:	83 c4 10             	add    $0x10,%esp
    1cff:	89 45 f4             	mov    %eax,-0xc(%ebp)
    1d02:	e9 0a 01 00 00       	jmp    1e11 <urlencode+0x132>
    1d07:	8b 45 08             	mov    0x8(%ebp),%eax
    1d0a:	0f b6 00             	movzbl (%eax),%eax
    1d0d:	3c 2a                	cmp    $0x2a,%al
    1d0f:	74 5a                	je     1d6b <urlencode+0x8c>
    1d11:	8b 45 08             	mov    0x8(%ebp),%eax
    1d14:	0f b6 00             	movzbl (%eax),%eax
    1d17:	3c 2d                	cmp    $0x2d,%al
    1d19:	74 50                	je     1d6b <urlencode+0x8c>
    1d1b:	8b 45 08             	mov    0x8(%ebp),%eax
    1d1e:	0f b6 00             	movzbl (%eax),%eax
    1d21:	3c 2e                	cmp    $0x2e,%al
    1d23:	74 46                	je     1d6b <urlencode+0x8c>
    1d25:	8b 45 08             	mov    0x8(%ebp),%eax
    1d28:	0f b6 00             	movzbl (%eax),%eax
    1d2b:	3c 5f                	cmp    $0x5f,%al
    1d2d:	74 3c                	je     1d6b <urlencode+0x8c>
    1d2f:	8b 45 08             	mov    0x8(%ebp),%eax
    1d32:	0f b6 00             	movzbl (%eax),%eax
    1d35:	3c 2f                	cmp    $0x2f,%al
    1d37:	76 0a                	jbe    1d43 <urlencode+0x64>
    1d39:	8b 45 08             	mov    0x8(%ebp),%eax
    1d3c:	0f b6 00             	movzbl (%eax),%eax
    1d3f:	3c 39                	cmp    $0x39,%al
    1d41:	76 28                	jbe    1d6b <urlencode+0x8c>
    1d43:	8b 45 08             	mov    0x8(%ebp),%eax
    1d46:	0f b6 00             	movzbl (%eax),%eax
    1d49:	3c 40                	cmp    $0x40,%al
    1d4b:	76 0a                	jbe    1d57 <urlencode+0x78>
    1d4d:	8b 45 08             	mov    0x8(%ebp),%eax
    1d50:	0f b6 00             	movzbl (%eax),%eax
    1d53:	3c 5a                	cmp    $0x5a,%al
    1d55:	76 14                	jbe    1d6b <urlencode+0x8c>
    1d57:	8b 45 08             	mov    0x8(%ebp),%eax
    1d5a:	0f b6 00             	movzbl (%eax),%eax
    1d5d:	3c 60                	cmp    $0x60,%al
    1d5f:	76 20                	jbe    1d81 <urlencode+0xa2>
    1d61:	8b 45 08             	mov    0x8(%ebp),%eax
    1d64:	0f b6 00             	movzbl (%eax),%eax
    1d67:	3c 7a                	cmp    $0x7a,%al
    1d69:	77 16                	ja     1d81 <urlencode+0xa2>
    1d6b:	8b 45 0c             	mov    0xc(%ebp),%eax
    1d6e:	8d 50 01             	lea    0x1(%eax),%edx
    1d71:	89 55 0c             	mov    %edx,0xc(%ebp)
    1d74:	8b 55 08             	mov    0x8(%ebp),%edx
    1d77:	0f b6 12             	movzbl (%edx),%edx
    1d7a:	88 10                	mov    %dl,(%eax)
    1d7c:	e9 8c 00 00 00       	jmp    1e0d <urlencode+0x12e>
    1d81:	8b 45 08             	mov    0x8(%ebp),%eax
    1d84:	0f b6 00             	movzbl (%eax),%eax
    1d87:	3c 20                	cmp    $0x20,%al
    1d89:	75 0e                	jne    1d99 <urlencode+0xba>
    1d8b:	8b 45 0c             	mov    0xc(%ebp),%eax
    1d8e:	8d 50 01             	lea    0x1(%eax),%edx
    1d91:	89 55 0c             	mov    %edx,0xc(%ebp)
    1d94:	c6 00 2b             	movb   $0x2b,(%eax)
    1d97:	eb 74                	jmp    1e0d <urlencode+0x12e>
    1d99:	8b 45 08             	mov    0x8(%ebp),%eax
    1d9c:	0f b6 00             	movzbl (%eax),%eax
    1d9f:	3c 1f                	cmp    $0x1f,%al
    1da1:	76 0a                	jbe    1dad <urlencode+0xce>
    1da3:	8b 45 08             	mov    0x8(%ebp),%eax
    1da6:	0f b6 00             	movzbl (%eax),%eax
    1da9:	84 c0                	test   %al,%al
    1dab:	79 0a                	jns    1db7 <urlencode+0xd8>
    1dad:	8b 45 08             	mov    0x8(%ebp),%eax
    1db0:	0f b6 00             	movzbl (%eax),%eax
    1db3:	3c 09                	cmp    $0x9,%al
    1db5:	75 4f                	jne    1e06 <urlencode+0x127>
    1db7:	8b 45 08             	mov    0x8(%ebp),%eax
    1dba:	0f b6 00             	movzbl (%eax),%eax
    1dbd:	0f b6 c0             	movzbl %al,%eax
    1dc0:	83 ec 04             	sub    $0x4,%esp
    1dc3:	50                   	push   %eax
    1dc4:	8d 83 04 dd ff ff    	lea    -0x22fc(%ebx),%eax
    1dca:	50                   	push   %eax
    1dcb:	8d 45 ec             	lea    -0x14(%ebp),%eax
    1dce:	50                   	push   %eax
    1dcf:	e8 ec ec ff ff       	call   ac0 <sprintf@plt>
    1dd4:	83 c4 10             	add    $0x10,%esp
    1dd7:	8b 45 0c             	mov    0xc(%ebp),%eax
    1dda:	8d 50 01             	lea    0x1(%eax),%edx
    1ddd:	89 55 0c             	mov    %edx,0xc(%ebp)
    1de0:	0f b6 55 ec          	movzbl -0x14(%ebp),%edx
    1de4:	88 10                	mov    %dl,(%eax)
    1de6:	8b 45 0c             	mov    0xc(%ebp),%eax
    1de9:	8d 50 01             	lea    0x1(%eax),%edx
    1dec:	89 55 0c             	mov    %edx,0xc(%ebp)
    1def:	0f b6 55 ed          	movzbl -0x13(%ebp),%edx
    1df3:	88 10                	mov    %dl,(%eax)
    1df5:	8b 45 0c             	mov    0xc(%ebp),%eax
    1df8:	8d 50 01             	lea    0x1(%eax),%edx
    1dfb:	89 55 0c             	mov    %edx,0xc(%ebp)
    1dfe:	0f b6 55 ee          	movzbl -0x12(%ebp),%edx
    1e02:	88 10                	mov    %dl,(%eax)
    1e04:	eb 07                	jmp    1e0d <urlencode+0x12e>
    1e06:	b8 ff ff ff ff       	mov    $0xffffffff,%eax
    1e0b:	eb 1a                	jmp    1e27 <urlencode+0x148>
    1e0d:	83 45 08 01          	addl   $0x1,0x8(%ebp)
    1e11:	8b 45 f4             	mov    -0xc(%ebp),%eax
    1e14:	8d 50 ff             	lea    -0x1(%eax),%edx
    1e17:	89 55 f4             	mov    %edx,-0xc(%ebp)
    1e1a:	85 c0                	test   %eax,%eax
    1e1c:	0f 85 e5 fe ff ff    	jne    1d07 <urlencode+0x28>
    1e22:	b8 00 00 00 00       	mov    $0x0,%eax
    1e27:	8b 5d fc             	mov    -0x4(%ebp),%ebx
    1e2a:	c9                   	leave  
    1e2b:	c3                   	ret    

00001e2c <submitr>:
    1e2c:	55                   	push   %ebp
    1e2d:	89 e5                	mov    %esp,%ebp
    1e2f:	57                   	push   %edi
    1e30:	56                   	push   %esi
    1e31:	53                   	push   %ebx
    1e32:	81 ec 3c a0 00 00    	sub    $0xa03c,%esp
    1e38:	e8 43 ed ff ff       	call   b80 <__x86.get_pc_thunk.bx>
    1e3d:	81 c3 c3 31 00 00    	add    $0x31c3,%ebx
    1e43:	c7 85 b8 7f ff ff 00 	movl   $0x0,-0x8048(%ebp)
    1e4a:	00 00 00 
    1e4d:	83 ec 04             	sub    $0x4,%esp
    1e50:	6a 00                	push   $0x0
    1e52:	6a 01                	push   $0x1
    1e54:	6a 02                	push   $0x2
    1e56:	e8 85 ec ff ff       	call   ae0 <socket@plt>
    1e5b:	83 c4 10             	add    $0x10,%esp
    1e5e:	89 45 e4             	mov    %eax,-0x1c(%ebp)
    1e61:	83 7d e4 00          	cmpl   $0x0,-0x1c(%ebp)
    1e65:	79 51                	jns    1eb8 <submitr+0x8c>
    1e67:	8b 45 20             	mov    0x20(%ebp),%eax
    1e6a:	c7 00 45 72 72 6f    	movl   $0x6f727245,(%eax)
    1e70:	c7 40 04 72 3a 20 43 	movl   $0x43203a72,0x4(%eax)
    1e77:	c7 40 08 6c 69 65 6e 	movl   $0x6e65696c,0x8(%eax)
    1e7e:	c7 40 0c 74 20 75 6e 	movl   $0x6e752074,0xc(%eax)
    1e85:	c7 40 10 61 62 6c 65 	movl   $0x656c6261,0x10(%eax)
    1e8c:	c7 40 14 20 74 6f 20 	movl   $0x206f7420,0x14(%eax)
    1e93:	c7 40 18 63 72 65 61 	movl   $0x61657263,0x18(%eax)
    1e9a:	c7 40 1c 74 65 20 73 	movl   $0x73206574,0x1c(%eax)
    1ea1:	c7 40 20 6f 63 6b 65 	movl   $0x656b636f,0x20(%eax)
    1ea8:	66 c7 40 24 74 00    	movw   $0x74,0x24(%eax)
    1eae:	b8 ff ff ff ff       	mov    $0xffffffff,%eax
    1eb3:	e9 27 06 00 00       	jmp    24df <submitr+0x6b3>
    1eb8:	83 ec 0c             	sub    $0xc,%esp
    1ebb:	ff 75 08             	pushl  0x8(%ebp)
    1ebe:	e8 2d ec ff ff       	call   af0 <gethostbyname@plt>
    1ec3:	83 c4 10             	add    $0x10,%esp
    1ec6:	89 45 e0             	mov    %eax,-0x20(%ebp)
    1ec9:	83 7d e0 00          	cmpl   $0x0,-0x20(%ebp)
    1ecd:	75 71                	jne    1f40 <submitr+0x114>
    1ecf:	8b 45 20             	mov    0x20(%ebp),%eax
    1ed2:	c7 00 45 72 72 6f    	movl   $0x6f727245,(%eax)
    1ed8:	c7 40 04 72 3a 20 44 	movl   $0x44203a72,0x4(%eax)
    1edf:	c7 40 08 4e 53 20 69 	movl   $0x6920534e,0x8(%eax)
    1ee6:	c7 40 0c 73 20 75 6e 	movl   $0x6e752073,0xc(%eax)
    1eed:	c7 40 10 61 62 6c 65 	movl   $0x656c6261,0x10(%eax)
    1ef4:	c7 40 14 20 74 6f 20 	movl   $0x206f7420,0x14(%eax)
    1efb:	c7 40 18 72 65 73 6f 	movl   $0x6f736572,0x18(%eax)
    1f02:	c7 40 1c 6c 76 65 20 	movl   $0x2065766c,0x1c(%eax)
    1f09:	c7 40 20 73 65 72 76 	movl   $0x76726573,0x20(%eax)
    1f10:	c7 40 24 65 72 20 61 	movl   $0x61207265,0x24(%eax)
    1f17:	c7 40 28 64 64 72 65 	movl   $0x65726464,0x28(%eax)
    1f1e:	66 c7 40 2c 73 73    	movw   $0x7373,0x2c(%eax)
    1f24:	c6 40 2e 00          	movb   $0x0,0x2e(%eax)
    1f28:	83 ec 0c             	sub    $0xc,%esp
    1f2b:	ff 75 e4             	pushl  -0x1c(%ebp)
    1f2e:	e8 dd eb ff ff       	call   b10 <close@plt>
    1f33:	83 c4 10             	add    $0x10,%esp
    1f36:	b8 ff ff ff ff       	mov    $0xffffffff,%eax
    1f3b:	e9 9f 05 00 00       	jmp    24df <submitr+0x6b3>
    1f40:	83 ec 08             	sub    $0x8,%esp
    1f43:	6a 10                	push   $0x10
    1f45:	8d 45 c8             	lea    -0x38(%ebp),%eax
    1f48:	50                   	push   %eax
    1f49:	e8 42 ea ff ff       	call   990 <bzero@plt>
    1f4e:	83 c4 10             	add    $0x10,%esp
    1f51:	66 c7 45 c8 02 00    	movw   $0x2,-0x38(%ebp)
    1f57:	8b 45 e0             	mov    -0x20(%ebp),%eax
    1f5a:	8b 40 0c             	mov    0xc(%eax),%eax
    1f5d:	89 c2                	mov    %eax,%edx
    1f5f:	8b 45 e0             	mov    -0x20(%ebp),%eax
    1f62:	8b 40 10             	mov    0x10(%eax),%eax
    1f65:	8b 00                	mov    (%eax),%eax
    1f67:	83 ec 04             	sub    $0x4,%esp
    1f6a:	52                   	push   %edx
    1f6b:	8d 55 c8             	lea    -0x38(%ebp),%edx
    1f6e:	83 c2 04             	add    $0x4,%edx
    1f71:	52                   	push   %edx
    1f72:	50                   	push   %eax
    1f73:	e8 78 ea ff ff       	call   9f0 <bcopy@plt>
    1f78:	83 c4 10             	add    $0x10,%esp
    1f7b:	8b 45 0c             	mov    0xc(%ebp),%eax
    1f7e:	0f b7 c0             	movzwl %ax,%eax
    1f81:	83 ec 0c             	sub    $0xc,%esp
    1f84:	50                   	push   %eax
    1f85:	e8 56 ea ff ff       	call   9e0 <htons@plt>
    1f8a:	83 c4 10             	add    $0x10,%esp
    1f8d:	66 89 45 ca          	mov    %ax,-0x36(%ebp)
    1f91:	83 ec 04             	sub    $0x4,%esp
    1f94:	6a 10                	push   $0x10
    1f96:	8d 45 c8             	lea    -0x38(%ebp),%eax
    1f99:	50                   	push   %eax
    1f9a:	ff 75 e4             	pushl  -0x1c(%ebp)
    1f9d:	e8 5e eb ff ff       	call   b00 <connect@plt>
    1fa2:	83 c4 10             	add    $0x10,%esp
    1fa5:	85 c0                	test   %eax,%eax
    1fa7:	79 63                	jns    200c <submitr+0x1e0>
    1fa9:	8b 45 20             	mov    0x20(%ebp),%eax
    1fac:	c7 00 45 72 72 6f    	movl   $0x6f727245,(%eax)
    1fb2:	c7 40 04 72 3a 20 55 	movl   $0x55203a72,0x4(%eax)
    1fb9:	c7 40 08 6e 61 62 6c 	movl   $0x6c62616e,0x8(%eax)
    1fc0:	c7 40 0c 65 20 74 6f 	movl   $0x6f742065,0xc(%eax)
    1fc7:	c7 40 10 20 63 6f 6e 	movl   $0x6e6f6320,0x10(%eax)
    1fce:	c7 40 14 6e 65 63 74 	movl   $0x7463656e,0x14(%eax)
    1fd5:	c7 40 18 20 74 6f 20 	movl   $0x206f7420,0x18(%eax)
    1fdc:	c7 40 1c 74 68 65 20 	movl   $0x20656874,0x1c(%eax)
    1fe3:	c7 40 20 73 65 72 76 	movl   $0x76726573,0x20(%eax)
    1fea:	66 c7 40 24 65 72    	movw   $0x7265,0x24(%eax)
    1ff0:	c6 40 26 00          	movb   $0x0,0x26(%eax)
    1ff4:	83 ec 0c             	sub    $0xc,%esp
    1ff7:	ff 75 e4             	pushl  -0x1c(%ebp)
    1ffa:	e8 11 eb ff ff       	call   b10 <close@plt>
    1fff:	83 c4 10             	add    $0x10,%esp
    2002:	b8 ff ff ff ff       	mov    $0xffffffff,%eax
    2007:	e9 d3 04 00 00       	jmp    24df <submitr+0x6b3>
    200c:	83 ec 0c             	sub    $0xc,%esp
    200f:	ff 75 1c             	pushl  0x1c(%ebp)
    2012:	e8 39 ea ff ff       	call   a50 <strlen@plt>
    2017:	83 c4 10             	add    $0x10,%esp
    201a:	89 45 dc             	mov    %eax,-0x24(%ebp)
    201d:	83 ec 0c             	sub    $0xc,%esp
    2020:	ff 75 10             	pushl  0x10(%ebp)
    2023:	e8 28 ea ff ff       	call   a50 <strlen@plt>
    2028:	83 c4 10             	add    $0x10,%esp
    202b:	89 c6                	mov    %eax,%esi
    202d:	83 ec 0c             	sub    $0xc,%esp
    2030:	ff 75 14             	pushl  0x14(%ebp)
    2033:	e8 18 ea ff ff       	call   a50 <strlen@plt>
    2038:	83 c4 10             	add    $0x10,%esp
    203b:	01 c6                	add    %eax,%esi
    203d:	83 ec 0c             	sub    $0xc,%esp
    2040:	ff 75 18             	pushl  0x18(%ebp)
    2043:	e8 08 ea ff ff       	call   a50 <strlen@plt>
    2048:	83 c4 10             	add    $0x10,%esp
    204b:	8d 0c 06             	lea    (%esi,%eax,1),%ecx
    204e:	8b 55 dc             	mov    -0x24(%ebp),%edx
    2051:	89 d0                	mov    %edx,%eax
    2053:	01 c0                	add    %eax,%eax
    2055:	01 d0                	add    %edx,%eax
    2057:	01 c8                	add    %ecx,%eax
    2059:	83 e8 80             	sub    $0xffffff80,%eax
    205c:	89 45 d8             	mov    %eax,-0x28(%ebp)
    205f:	81 7d d8 00 20 00 00 	cmpl   $0x2000,-0x28(%ebp)
    2066:	76 7c                	jbe    20e4 <submitr+0x2b8>
    2068:	8b 45 20             	mov    0x20(%ebp),%eax
    206b:	c7 00 45 72 72 6f    	movl   $0x6f727245,(%eax)
    2071:	c7 40 04 72 3a 20 52 	movl   $0x52203a72,0x4(%eax)
    2078:	c7 40 08 65 73 75 6c 	movl   $0x6c757365,0x8(%eax)
    207f:	c7 40 0c 74 20 73 74 	movl   $0x74732074,0xc(%eax)
    2086:	c7 40 10 72 69 6e 67 	movl   $0x676e6972,0x10(%eax)
    208d:	c7 40 14 20 74 6f 6f 	movl   $0x6f6f7420,0x14(%eax)
    2094:	c7 40 18 20 6c 61 72 	movl   $0x72616c20,0x18(%eax)
    209b:	c7 40 1c 67 65 2e 20 	movl   $0x202e6567,0x1c(%eax)
    20a2:	c7 40 20 49 6e 63 72 	movl   $0x72636e49,0x20(%eax)
    20a9:	c7 40 24 65 61 73 65 	movl   $0x65736165,0x24(%eax)
    20b0:	c7 40 28 20 53 55 42 	movl   $0x42555320,0x28(%eax)
    20b7:	c7 40 2c 4d 49 54 52 	movl   $0x5254494d,0x2c(%eax)
    20be:	c7 40 30 5f 4d 41 58 	movl   $0x58414d5f,0x30(%eax)
    20c5:	c7 40 34 42 55 46 00 	movl   $0x465542,0x34(%eax)
    20cc:	83 ec 0c             	sub    $0xc,%esp
    20cf:	ff 75 e4             	pushl  -0x1c(%ebp)
    20d2:	e8 39 ea ff ff       	call   b10 <close@plt>
    20d7:	83 c4 10             	add    $0x10,%esp
    20da:	b8 ff ff ff ff       	mov    $0xffffffff,%eax
    20df:	e9 fb 03 00 00       	jmp    24df <submitr+0x6b3>
    20e4:	83 ec 08             	sub    $0x8,%esp
    20e7:	68 00 20 00 00       	push   $0x2000
    20ec:	8d 85 bc 9f ff ff    	lea    -0x6044(%ebp),%eax
    20f2:	50                   	push   %eax
    20f3:	e8 98 e8 ff ff       	call   990 <bzero@plt>
    20f8:	83 c4 10             	add    $0x10,%esp
    20fb:	83 ec 08             	sub    $0x8,%esp
    20fe:	8d 85 bc 9f ff ff    	lea    -0x6044(%ebp),%eax
    2104:	50                   	push   %eax
    2105:	ff 75 1c             	pushl  0x1c(%ebp)
    2108:	e8 d2 fb ff ff       	call   1cdf <urlencode>
    210d:	83 c4 10             	add    $0x10,%esp
    2110:	85 c0                	test   %eax,%eax
    2112:	79 4e                	jns    2162 <submitr+0x336>
    2114:	8b 45 20             	mov    0x20(%ebp),%eax
    2117:	89 c2                	mov    %eax,%edx
    2119:	8d 83 0c dd ff ff    	lea    -0x22f4(%ebx),%eax
    211f:	b9 43 00 00 00       	mov    $0x43,%ecx
    2124:	8b 30                	mov    (%eax),%esi
    2126:	89 32                	mov    %esi,(%edx)
    2128:	8b 74 08 fc          	mov    -0x4(%eax,%ecx,1),%esi
    212c:	89 74 0a fc          	mov    %esi,-0x4(%edx,%ecx,1)
    2130:	8d 7a 04             	lea    0x4(%edx),%edi
    2133:	83 e7 fc             	and    $0xfffffffc,%edi
    2136:	29 fa                	sub    %edi,%edx
    2138:	29 d0                	sub    %edx,%eax
    213a:	01 d1                	add    %edx,%ecx
    213c:	83 e1 fc             	and    $0xfffffffc,%ecx
    213f:	c1 e9 02             	shr    $0x2,%ecx
    2142:	89 ca                	mov    %ecx,%edx
    2144:	89 c6                	mov    %eax,%esi
    2146:	89 d1                	mov    %edx,%ecx
    2148:	f3 a5                	rep movsl %ds:(%esi),%es:(%edi)
    214a:	83 ec 0c             	sub    $0xc,%esp
    214d:	ff 75 e4             	pushl  -0x1c(%ebp)
    2150:	e8 bb e9 ff ff       	call   b10 <close@plt>
    2155:	83 c4 10             	add    $0x10,%esp
    2158:	b8 ff ff ff ff       	mov    $0xffffffff,%eax
    215d:	e9 7d 03 00 00       	jmp    24df <submitr+0x6b3>
    2162:	83 ec 08             	sub    $0x8,%esp
    2165:	8d 85 bc 9f ff ff    	lea    -0x6044(%ebp),%eax
    216b:	50                   	push   %eax
    216c:	ff 75 18             	pushl  0x18(%ebp)
    216f:	ff 75 14             	pushl  0x14(%ebp)
    2172:	ff 75 10             	pushl  0x10(%ebp)
    2175:	8d 83 50 dd ff ff    	lea    -0x22b0(%ebx),%eax
    217b:	50                   	push   %eax
    217c:	8d 85 bc bf ff ff    	lea    -0x4044(%ebp),%eax
    2182:	50                   	push   %eax
    2183:	e8 38 e9 ff ff       	call   ac0 <sprintf@plt>
    2188:	83 c4 20             	add    $0x20,%esp
    218b:	83 ec 0c             	sub    $0xc,%esp
    218e:	8d 85 bc bf ff ff    	lea    -0x4044(%ebp),%eax
    2194:	50                   	push   %eax
    2195:	e8 b6 e8 ff ff       	call   a50 <strlen@plt>
    219a:	83 c4 10             	add    $0x10,%esp
    219d:	83 ec 04             	sub    $0x4,%esp
    21a0:	50                   	push   %eax
    21a1:	8d 85 bc bf ff ff    	lea    -0x4044(%ebp),%eax
    21a7:	50                   	push   %eax
    21a8:	ff 75 e4             	pushl  -0x1c(%ebp)
    21ab:	e8 bc fa ff ff       	call   1c6c <rio_writen>
    21b0:	83 c4 10             	add    $0x10,%esp
    21b3:	85 c0                	test   %eax,%eax
    21b5:	79 67                	jns    221e <submitr+0x3f2>
    21b7:	8b 45 20             	mov    0x20(%ebp),%eax
    21ba:	c7 00 45 72 72 6f    	movl   $0x6f727245,(%eax)
    21c0:	c7 40 04 72 3a 20 43 	movl   $0x43203a72,0x4(%eax)
    21c7:	c7 40 08 6c 69 65 6e 	movl   $0x6e65696c,0x8(%eax)
    21ce:	c7 40 0c 74 20 75 6e 	movl   $0x6e752074,0xc(%eax)
    21d5:	c7 40 10 61 62 6c 65 	movl   $0x656c6261,0x10(%eax)
    21dc:	c7 40 14 20 74 6f 20 	movl   $0x206f7420,0x14(%eax)
    21e3:	c7 40 18 77 72 69 74 	movl   $0x74697277,0x18(%eax)
    21ea:	c7 40 1c 65 20 74 6f 	movl   $0x6f742065,0x1c(%eax)
    21f1:	c7 40 20 20 74 68 65 	movl   $0x65687420,0x20(%eax)
    21f8:	c7 40 24 20 73 65 72 	movl   $0x72657320,0x24(%eax)
    21ff:	c7 40 28 76 65 72 00 	movl   $0x726576,0x28(%eax)
    2206:	83 ec 0c             	sub    $0xc,%esp
    2209:	ff 75 e4             	pushl  -0x1c(%ebp)
    220c:	e8 ff e8 ff ff       	call   b10 <close@plt>
    2211:	83 c4 10             	add    $0x10,%esp
    2214:	b8 ff ff ff ff       	mov    $0xffffffff,%eax
    2219:	e9 c1 02 00 00       	jmp    24df <submitr+0x6b3>
    221e:	83 ec 08             	sub    $0x8,%esp
    2221:	ff 75 e4             	pushl  -0x1c(%ebp)
    2224:	8d 85 bc df ff ff    	lea    -0x2044(%ebp),%eax
    222a:	50                   	push   %eax
    222b:	e8 ab f8 ff ff       	call   1adb <rio_readinitb>
    2230:	83 c4 10             	add    $0x10,%esp
    2233:	83 ec 04             	sub    $0x4,%esp
    2236:	68 00 20 00 00       	push   $0x2000
    223b:	8d 85 bc bf ff ff    	lea    -0x4044(%ebp),%eax
    2241:	50                   	push   %eax
    2242:	8d 85 bc df ff ff    	lea    -0x2044(%ebp),%eax
    2248:	50                   	push   %eax
    2249:	e8 95 f9 ff ff       	call   1be3 <rio_readlineb>
    224e:	83 c4 10             	add    $0x10,%esp
    2251:	85 c0                	test   %eax,%eax
    2253:	7f 7b                	jg     22d0 <submitr+0x4a4>
    2255:	8b 45 20             	mov    0x20(%ebp),%eax
    2258:	c7 00 45 72 72 6f    	movl   $0x6f727245,(%eax)
    225e:	c7 40 04 72 3a 20 43 	movl   $0x43203a72,0x4(%eax)
    2265:	c7 40 08 6c 69 65 6e 	movl   $0x6e65696c,0x8(%eax)
    226c:	c7 40 0c 74 20 75 6e 	movl   $0x6e752074,0xc(%eax)
    2273:	c7 40 10 61 62 6c 65 	movl   $0x656c6261,0x10(%eax)
    227a:	c7 40 14 20 74 6f 20 	movl   $0x206f7420,0x14(%eax)
    2281:	c7 40 18 72 65 61 64 	movl   $0x64616572,0x18(%eax)
    2288:	c7 40 1c 20 66 69 72 	movl   $0x72696620,0x1c(%eax)
    228f:	c7 40 20 73 74 20 68 	movl   $0x68207473,0x20(%eax)
    2296:	c7 40 24 65 61 64 65 	movl   $0x65646165,0x24(%eax)
    229d:	c7 40 28 72 20 66 72 	movl   $0x72662072,0x28(%eax)
    22a4:	c7 40 2c 6f 6d 20 73 	movl   $0x73206d6f,0x2c(%eax)
    22ab:	c7 40 30 65 72 76 65 	movl   $0x65767265,0x30(%eax)
    22b2:	66 c7 40 34 72 00    	movw   $0x72,0x34(%eax)
    22b8:	83 ec 0c             	sub    $0xc,%esp
    22bb:	ff 75 e4             	pushl  -0x1c(%ebp)
    22be:	e8 4d e8 ff ff       	call   b10 <close@plt>
    22c3:	83 c4 10             	add    $0x10,%esp
    22c6:	b8 ff ff ff ff       	mov    $0xffffffff,%eax
    22cb:	e9 0f 02 00 00       	jmp    24df <submitr+0x6b3>
    22d0:	83 ec 0c             	sub    $0xc,%esp
    22d3:	8d 85 b8 5f ff ff    	lea    -0xa048(%ebp),%eax
    22d9:	50                   	push   %eax
    22da:	8d 85 b8 7f ff ff    	lea    -0x8048(%ebp),%eax
    22e0:	50                   	push   %eax
    22e1:	8d 85 bc 7f ff ff    	lea    -0x8044(%ebp),%eax
    22e7:	50                   	push   %eax
    22e8:	8d 83 9a dd ff ff    	lea    -0x2266(%ebx),%eax
    22ee:	50                   	push   %eax
    22ef:	8d 85 bc bf ff ff    	lea    -0x4044(%ebp),%eax
    22f5:	50                   	push   %eax
    22f6:	e8 95 e7 ff ff       	call   a90 <__isoc99_sscanf@plt>
    22fb:	83 c4 20             	add    $0x20,%esp
    22fe:	8b 85 b8 7f ff ff    	mov    -0x8048(%ebp),%eax
    2304:	3d c8 00 00 00       	cmp    $0xc8,%eax
    2309:	0f 84 cc 00 00 00    	je     23db <submitr+0x5af>
    230f:	8b 85 b8 7f ff ff    	mov    -0x8048(%ebp),%eax
    2315:	8d 95 b8 5f ff ff    	lea    -0xa048(%ebp),%edx
    231b:	52                   	push   %edx
    231c:	50                   	push   %eax
    231d:	8d 83 ac dd ff ff    	lea    -0x2254(%ebx),%eax
    2323:	50                   	push   %eax
    2324:	ff 75 20             	pushl  0x20(%ebp)
    2327:	e8 94 e7 ff ff       	call   ac0 <sprintf@plt>
    232c:	83 c4 10             	add    $0x10,%esp
    232f:	83 ec 0c             	sub    $0xc,%esp
    2332:	ff 75 e4             	pushl  -0x1c(%ebp)
    2335:	e8 d6 e7 ff ff       	call   b10 <close@plt>
    233a:	83 c4 10             	add    $0x10,%esp
    233d:	b8 ff ff ff ff       	mov    $0xffffffff,%eax
    2342:	e9 98 01 00 00       	jmp    24df <submitr+0x6b3>
    2347:	83 ec 04             	sub    $0x4,%esp
    234a:	68 00 20 00 00       	push   $0x2000
    234f:	8d 85 bc bf ff ff    	lea    -0x4044(%ebp),%eax
    2355:	50                   	push   %eax
    2356:	8d 85 bc df ff ff    	lea    -0x2044(%ebp),%eax
    235c:	50                   	push   %eax
    235d:	e8 81 f8 ff ff       	call   1be3 <rio_readlineb>
    2362:	83 c4 10             	add    $0x10,%esp
    2365:	85 c0                	test   %eax,%eax
    2367:	7f 72                	jg     23db <submitr+0x5af>
    2369:	8b 45 20             	mov    0x20(%ebp),%eax
    236c:	c7 00 45 72 72 6f    	movl   $0x6f727245,(%eax)
    2372:	c7 40 04 72 3a 20 43 	movl   $0x43203a72,0x4(%eax)
    2379:	c7 40 08 6c 69 65 6e 	movl   $0x6e65696c,0x8(%eax)
    2380:	c7 40 0c 74 20 75 6e 	movl   $0x6e752074,0xc(%eax)
    2387:	c7 40 10 61 62 6c 65 	movl   $0x656c6261,0x10(%eax)
    238e:	c7 40 14 20 74 6f 20 	movl   $0x206f7420,0x14(%eax)
    2395:	c7 40 18 72 65 61 64 	movl   $0x64616572,0x18(%eax)
    239c:	c7 40 1c 20 68 65 61 	movl   $0x61656820,0x1c(%eax)
    23a3:	c7 40 20 64 65 72 73 	movl   $0x73726564,0x20(%eax)
    23aa:	c7 40 24 20 66 72 6f 	movl   $0x6f726620,0x24(%eax)
    23b1:	c7 40 28 6d 20 73 65 	movl   $0x6573206d,0x28(%eax)
    23b8:	c7 40 2c 72 76 65 72 	movl   $0x72657672,0x2c(%eax)
    23bf:	c6 40 30 00          	movb   $0x0,0x30(%eax)
    23c3:	83 ec 0c             	sub    $0xc,%esp
    23c6:	ff 75 e4             	pushl  -0x1c(%ebp)
    23c9:	e8 42 e7 ff ff       	call   b10 <close@plt>
    23ce:	83 c4 10             	add    $0x10,%esp
    23d1:	b8 ff ff ff ff       	mov    $0xffffffff,%eax
    23d6:	e9 04 01 00 00       	jmp    24df <submitr+0x6b3>
    23db:	83 ec 08             	sub    $0x8,%esp
    23de:	8d 83 d9 dd ff ff    	lea    -0x2227(%ebx),%eax
    23e4:	50                   	push   %eax
    23e5:	8d 85 bc bf ff ff    	lea    -0x4044(%ebp),%eax
    23eb:	50                   	push   %eax
    23ec:	e8 4f e5 ff ff       	call   940 <strcmp@plt>
    23f1:	83 c4 10             	add    $0x10,%esp
    23f4:	85 c0                	test   %eax,%eax
    23f6:	0f 85 4b ff ff ff    	jne    2347 <submitr+0x51b>
    23fc:	83 ec 04             	sub    $0x4,%esp
    23ff:	68 00 20 00 00       	push   $0x2000
    2404:	8d 85 bc bf ff ff    	lea    -0x4044(%ebp),%eax
    240a:	50                   	push   %eax
    240b:	8d 85 bc df ff ff    	lea    -0x2044(%ebp),%eax
    2411:	50                   	push   %eax
    2412:	e8 cc f7 ff ff       	call   1be3 <rio_readlineb>
    2417:	83 c4 10             	add    $0x10,%esp
    241a:	85 c0                	test   %eax,%eax
    241c:	7f 79                	jg     2497 <submitr+0x66b>
    241e:	8b 45 20             	mov    0x20(%ebp),%eax
    2421:	c7 00 45 72 72 6f    	movl   $0x6f727245,(%eax)
    2427:	c7 40 04 72 3a 20 43 	movl   $0x43203a72,0x4(%eax)
    242e:	c7 40 08 6c 69 65 6e 	movl   $0x6e65696c,0x8(%eax)
    2435:	c7 40 0c 74 20 75 6e 	movl   $0x6e752074,0xc(%eax)
    243c:	c7 40 10 61 62 6c 65 	movl   $0x656c6261,0x10(%eax)
    2443:	c7 40 14 20 74 6f 20 	movl   $0x206f7420,0x14(%eax)
    244a:	c7 40 18 72 65 61 64 	movl   $0x64616572,0x18(%eax)
    2451:	c7 40 1c 20 73 74 61 	movl   $0x61747320,0x1c(%eax)
    2458:	c7 40 20 74 75 73 20 	movl   $0x20737574,0x20(%eax)
    245f:	c7 40 24 6d 65 73 73 	movl   $0x7373656d,0x24(%eax)
    2466:	c7 40 28 61 67 65 20 	movl   $0x20656761,0x28(%eax)
    246d:	c7 40 2c 66 72 6f 6d 	movl   $0x6d6f7266,0x2c(%eax)
    2474:	c7 40 30 20 73 65 72 	movl   $0x72657320,0x30(%eax)
    247b:	c7 40 34 76 65 72 00 	movl   $0x726576,0x34(%eax)
    2482:	83 ec 0c             	sub    $0xc,%esp
    2485:	ff 75 e4             	pushl  -0x1c(%ebp)
    2488:	e8 83 e6 ff ff       	call   b10 <close@plt>
    248d:	83 c4 10             	add    $0x10,%esp
    2490:	b8 ff ff ff ff       	mov    $0xffffffff,%eax
    2495:	eb 48                	jmp    24df <submitr+0x6b3>
    2497:	83 ec 08             	sub    $0x8,%esp
    249a:	8d 85 bc bf ff ff    	lea    -0x4044(%ebp),%eax
    24a0:	50                   	push   %eax
    24a1:	ff 75 20             	pushl  0x20(%ebp)
    24a4:	e8 57 e5 ff ff       	call   a00 <strcpy@plt>
    24a9:	83 c4 10             	add    $0x10,%esp
    24ac:	83 ec 0c             	sub    $0xc,%esp
    24af:	ff 75 e4             	pushl  -0x1c(%ebp)
    24b2:	e8 59 e6 ff ff       	call   b10 <close@plt>
    24b7:	83 c4 10             	add    $0x10,%esp
    24ba:	83 ec 08             	sub    $0x8,%esp
    24bd:	8d 83 dc dd ff ff    	lea    -0x2224(%ebx),%eax
    24c3:	50                   	push   %eax
    24c4:	ff 75 20             	pushl  0x20(%ebp)
    24c7:	e8 74 e4 ff ff       	call   940 <strcmp@plt>
    24cc:	83 c4 10             	add    $0x10,%esp
    24cf:	85 c0                	test   %eax,%eax
    24d1:	75 07                	jne    24da <submitr+0x6ae>
    24d3:	b8 00 00 00 00       	mov    $0x0,%eax
    24d8:	eb 05                	jmp    24df <submitr+0x6b3>
    24da:	b8 ff ff ff ff       	mov    $0xffffffff,%eax
    24df:	8d 65 f4             	lea    -0xc(%ebp),%esp
    24e2:	5b                   	pop    %ebx
    24e3:	5e                   	pop    %esi
    24e4:	5f                   	pop    %edi
    24e5:	5d                   	pop    %ebp
    24e6:	c3                   	ret    

000024e7 <init_timeout>:
    24e7:	55                   	push   %ebp
    24e8:	89 e5                	mov    %esp,%ebp
    24ea:	53                   	push   %ebx
    24eb:	83 ec 04             	sub    $0x4,%esp
    24ee:	e8 8d e6 ff ff       	call   b80 <__x86.get_pc_thunk.bx>
    24f3:	81 c3 0d 2b 00 00    	add    $0x2b0d,%ebx
    24f9:	83 7d 08 00          	cmpl   $0x0,0x8(%ebp)
    24fd:	74 32                	je     2531 <init_timeout+0x4a>
    24ff:	83 7d 08 00          	cmpl   $0x0,0x8(%ebp)
    2503:	79 07                	jns    250c <init_timeout+0x25>
    2505:	c7 45 08 00 00 00 00 	movl   $0x0,0x8(%ebp)
    250c:	83 ec 08             	sub    $0x8,%esp
    250f:	8d 83 a2 ca ff ff    	lea    -0x355e(%ebx),%eax
    2515:	50                   	push   %eax
    2516:	6a 0e                	push   $0xe
    2518:	e8 93 e4 ff ff       	call   9b0 <signal@plt>
    251d:	83 c4 10             	add    $0x10,%esp
    2520:	8b 45 08             	mov    0x8(%ebp),%eax
    2523:	83 ec 0c             	sub    $0xc,%esp
    2526:	50                   	push   %eax
    2527:	e8 a4 e4 ff ff       	call   9d0 <alarm@plt>
    252c:	83 c4 10             	add    $0x10,%esp
    252f:	eb 01                	jmp    2532 <init_timeout+0x4b>
    2531:	90                   	nop
    2532:	8b 5d fc             	mov    -0x4(%ebp),%ebx
    2535:	c9                   	leave  
    2536:	c3                   	ret    

00002537 <init_driver>:
    2537:	55                   	push   %ebp
    2538:	89 e5                	mov    %esp,%ebp
    253a:	53                   	push   %ebx
    253b:	83 ec 24             	sub    $0x24,%esp
    253e:	e8 3d e6 ff ff       	call   b80 <__x86.get_pc_thunk.bx>
    2543:	81 c3 bd 2a 00 00    	add    $0x2abd,%ebx
    2549:	8d 83 df dd ff ff    	lea    -0x2221(%ebx),%eax
    254f:	89 45 f4             	mov    %eax,-0xc(%ebp)
    2552:	c7 45 f0 46 75 00 00 	movl   $0x7546,-0x10(%ebp)
    2559:	83 ec 08             	sub    $0x8,%esp
    255c:	6a 01                	push   $0x1
    255e:	6a 0d                	push   $0xd
    2560:	e8 4b e4 ff ff       	call   9b0 <signal@plt>
    2565:	83 c4 10             	add    $0x10,%esp
    2568:	83 ec 08             	sub    $0x8,%esp
    256b:	6a 01                	push   $0x1
    256d:	6a 1d                	push   $0x1d
    256f:	e8 3c e4 ff ff       	call   9b0 <signal@plt>
    2574:	83 c4 10             	add    $0x10,%esp
    2577:	83 ec 08             	sub    $0x8,%esp
    257a:	6a 01                	push   $0x1
    257c:	6a 1d                	push   $0x1d
    257e:	e8 2d e4 ff ff       	call   9b0 <signal@plt>
    2583:	83 c4 10             	add    $0x10,%esp
    2586:	83 ec 04             	sub    $0x4,%esp
    2589:	6a 00                	push   $0x0
    258b:	6a 01                	push   $0x1
    258d:	6a 02                	push   $0x2
    258f:	e8 4c e5 ff ff       	call   ae0 <socket@plt>
    2594:	83 c4 10             	add    $0x10,%esp
    2597:	89 45 ec             	mov    %eax,-0x14(%ebp)
    259a:	83 7d ec 00          	cmpl   $0x0,-0x14(%ebp)
    259e:	79 51                	jns    25f1 <init_driver+0xba>
    25a0:	8b 45 08             	mov    0x8(%ebp),%eax
    25a3:	c7 00 45 72 72 6f    	movl   $0x6f727245,(%eax)
    25a9:	c7 40 04 72 3a 20 43 	movl   $0x43203a72,0x4(%eax)
    25b0:	c7 40 08 6c 69 65 6e 	movl   $0x6e65696c,0x8(%eax)
    25b7:	c7 40 0c 74 20 75 6e 	movl   $0x6e752074,0xc(%eax)
    25be:	c7 40 10 61 62 6c 65 	movl   $0x656c6261,0x10(%eax)
    25c5:	c7 40 14 20 74 6f 20 	movl   $0x206f7420,0x14(%eax)
    25cc:	c7 40 18 63 72 65 61 	movl   $0x61657263,0x18(%eax)
    25d3:	c7 40 1c 74 65 20 73 	movl   $0x73206574,0x1c(%eax)
    25da:	c7 40 20 6f 63 6b 65 	movl   $0x656b636f,0x20(%eax)
    25e1:	66 c7 40 24 74 00    	movw   $0x74,0x24(%eax)
    25e7:	b8 ff ff ff ff       	mov    $0xffffffff,%eax
    25ec:	e9 3d 01 00 00       	jmp    272e <init_driver+0x1f7>
    25f1:	83 ec 0c             	sub    $0xc,%esp
    25f4:	ff 75 f4             	pushl  -0xc(%ebp)
    25f7:	e8 f4 e4 ff ff       	call   af0 <gethostbyname@plt>
    25fc:	83 c4 10             	add    $0x10,%esp
    25ff:	89 45 e8             	mov    %eax,-0x18(%ebp)
    2602:	83 7d e8 00          	cmpl   $0x0,-0x18(%ebp)
    2606:	75 71                	jne    2679 <init_driver+0x142>
    2608:	8b 45 08             	mov    0x8(%ebp),%eax
    260b:	c7 00 45 72 72 6f    	movl   $0x6f727245,(%eax)
    2611:	c7 40 04 72 3a 20 44 	movl   $0x44203a72,0x4(%eax)
    2618:	c7 40 08 4e 53 20 69 	movl   $0x6920534e,0x8(%eax)
    261f:	c7 40 0c 73 20 75 6e 	movl   $0x6e752073,0xc(%eax)
    2626:	c7 40 10 61 62 6c 65 	movl   $0x656c6261,0x10(%eax)
    262d:	c7 40 14 20 74 6f 20 	movl   $0x206f7420,0x14(%eax)
    2634:	c7 40 18 72 65 73 6f 	movl   $0x6f736572,0x18(%eax)
    263b:	c7 40 1c 6c 76 65 20 	movl   $0x2065766c,0x1c(%eax)
    2642:	c7 40 20 73 65 72 76 	movl   $0x76726573,0x20(%eax)
    2649:	c7 40 24 65 72 20 61 	movl   $0x61207265,0x24(%eax)
    2650:	c7 40 28 64 64 72 65 	movl   $0x65726464,0x28(%eax)
    2657:	66 c7 40 2c 73 73    	movw   $0x7373,0x2c(%eax)
    265d:	c6 40 2e 00          	movb   $0x0,0x2e(%eax)
    2661:	83 ec 0c             	sub    $0xc,%esp
    2664:	ff 75 ec             	pushl  -0x14(%ebp)
    2667:	e8 a4 e4 ff ff       	call   b10 <close@plt>
    266c:	83 c4 10             	add    $0x10,%esp
    266f:	b8 ff ff ff ff       	mov    $0xffffffff,%eax
    2674:	e9 b5 00 00 00       	jmp    272e <init_driver+0x1f7>
    2679:	83 ec 08             	sub    $0x8,%esp
    267c:	6a 10                	push   $0x10
    267e:	8d 45 d8             	lea    -0x28(%ebp),%eax
    2681:	50                   	push   %eax
    2682:	e8 09 e3 ff ff       	call   990 <bzero@plt>
    2687:	83 c4 10             	add    $0x10,%esp
    268a:	66 c7 45 d8 02 00    	movw   $0x2,-0x28(%ebp)
    2690:	8b 45 e8             	mov    -0x18(%ebp),%eax
    2693:	8b 40 0c             	mov    0xc(%eax),%eax
    2696:	89 c2                	mov    %eax,%edx
    2698:	8b 45 e8             	mov    -0x18(%ebp),%eax
    269b:	8b 40 10             	mov    0x10(%eax),%eax
    269e:	8b 00                	mov    (%eax),%eax
    26a0:	83 ec 04             	sub    $0x4,%esp
    26a3:	52                   	push   %edx
    26a4:	8d 55 d8             	lea    -0x28(%ebp),%edx
    26a7:	83 c2 04             	add    $0x4,%edx
    26aa:	52                   	push   %edx
    26ab:	50                   	push   %eax
    26ac:	e8 3f e3 ff ff       	call   9f0 <bcopy@plt>
    26b1:	83 c4 10             	add    $0x10,%esp
    26b4:	8b 45 f0             	mov    -0x10(%ebp),%eax
    26b7:	0f b7 c0             	movzwl %ax,%eax
    26ba:	83 ec 0c             	sub    $0xc,%esp
    26bd:	50                   	push   %eax
    26be:	e8 1d e3 ff ff       	call   9e0 <htons@plt>
    26c3:	83 c4 10             	add    $0x10,%esp
    26c6:	66 89 45 da          	mov    %ax,-0x26(%ebp)
    26ca:	83 ec 04             	sub    $0x4,%esp
    26cd:	6a 10                	push   $0x10
    26cf:	8d 45 d8             	lea    -0x28(%ebp),%eax
    26d2:	50                   	push   %eax
    26d3:	ff 75 ec             	pushl  -0x14(%ebp)
    26d6:	e8 25 e4 ff ff       	call   b00 <connect@plt>
    26db:	83 c4 10             	add    $0x10,%esp
    26de:	85 c0                	test   %eax,%eax
    26e0:	79 2d                	jns    270f <init_driver+0x1d8>
    26e2:	83 ec 04             	sub    $0x4,%esp
    26e5:	ff 75 f4             	pushl  -0xc(%ebp)
    26e8:	8d 83 f4 dd ff ff    	lea    -0x220c(%ebx),%eax
    26ee:	50                   	push   %eax
    26ef:	ff 75 08             	pushl  0x8(%ebp)
    26f2:	e8 c9 e3 ff ff       	call   ac0 <sprintf@plt>
    26f7:	83 c4 10             	add    $0x10,%esp
    26fa:	83 ec 0c             	sub    $0xc,%esp
    26fd:	ff 75 ec             	pushl  -0x14(%ebp)
    2700:	e8 0b e4 ff ff       	call   b10 <close@plt>
    2705:	83 c4 10             	add    $0x10,%esp
    2708:	b8 ff ff ff ff       	mov    $0xffffffff,%eax
    270d:	eb 1f                	jmp    272e <init_driver+0x1f7>
    270f:	83 ec 0c             	sub    $0xc,%esp
    2712:	ff 75 ec             	pushl  -0x14(%ebp)
    2715:	e8 f6 e3 ff ff       	call   b10 <close@plt>
    271a:	83 c4 10             	add    $0x10,%esp
    271d:	8b 45 08             	mov    0x8(%ebp),%eax
    2720:	66 c7 00 4f 4b       	movw   $0x4b4f,(%eax)
    2725:	c6 40 02 00          	movb   $0x0,0x2(%eax)
    2729:	b8 00 00 00 00       	mov    $0x0,%eax
    272e:	8b 5d fc             	mov    -0x4(%ebp),%ebx
    2731:	c9                   	leave  
    2732:	c3                   	ret    

00002733 <driver_post>:
    2733:	55                   	push   %ebp
    2734:	89 e5                	mov    %esp,%ebp
    2736:	53                   	push   %ebx
    2737:	83 ec 14             	sub    $0x14,%esp
    273a:	e8 87 ec ff ff       	call   13c6 <__x86.get_pc_thunk.ax>
    273f:	05 c1 28 00 00       	add    $0x28c1,%eax
    2744:	83 7d 10 00          	cmpl   $0x0,0x10(%ebp)
    2748:	74 2a                	je     2774 <driver_post+0x41>
    274a:	83 ec 08             	sub    $0x8,%esp
    274d:	ff 75 0c             	pushl  0xc(%ebp)
    2750:	8d 90 1a de ff ff    	lea    -0x21e6(%eax),%edx
    2756:	52                   	push   %edx
    2757:	89 c3                	mov    %eax,%ebx
    2759:	e8 02 e2 ff ff       	call   960 <printf@plt>
    275e:	83 c4 10             	add    $0x10,%esp
    2761:	8b 45 14             	mov    0x14(%ebp),%eax
    2764:	66 c7 00 4f 4b       	movw   $0x4b4f,(%eax)
    2769:	c6 40 02 00          	movb   $0x0,0x2(%eax)
    276d:	b8 00 00 00 00       	mov    $0x0,%eax
    2772:	eb 57                	jmp    27cb <driver_post+0x98>
    2774:	83 7d 08 00          	cmpl   $0x0,0x8(%ebp)
    2778:	74 40                	je     27ba <driver_post+0x87>
    277a:	8b 55 08             	mov    0x8(%ebp),%edx
    277d:	0f b6 12             	movzbl (%edx),%edx
    2780:	84 d2                	test   %dl,%dl
    2782:	74 36                	je     27ba <driver_post+0x87>
    2784:	83 ec 04             	sub    $0x4,%esp
    2787:	ff 75 14             	pushl  0x14(%ebp)
    278a:	ff 75 0c             	pushl  0xc(%ebp)
    278d:	8d 90 31 de ff ff    	lea    -0x21cf(%eax),%edx
    2793:	52                   	push   %edx
    2794:	ff 75 08             	pushl  0x8(%ebp)
    2797:	8d 90 35 de ff ff    	lea    -0x21cb(%eax),%edx
    279d:	52                   	push   %edx
    279e:	68 46 75 00 00       	push   $0x7546
    27a3:	8d 80 df dd ff ff    	lea    -0x2221(%eax),%eax
    27a9:	50                   	push   %eax
    27aa:	e8 7d f6 ff ff       	call   1e2c <submitr>
    27af:	83 c4 20             	add    $0x20,%esp
    27b2:	89 45 f4             	mov    %eax,-0xc(%ebp)
    27b5:	8b 45 f4             	mov    -0xc(%ebp),%eax
    27b8:	eb 11                	jmp    27cb <driver_post+0x98>
    27ba:	8b 45 14             	mov    0x14(%ebp),%eax
    27bd:	66 c7 00 4f 4b       	movw   $0x4b4f,(%eax)
    27c2:	c6 40 02 00          	movb   $0x0,0x2(%eax)
    27c6:	b8 00 00 00 00       	mov    $0x0,%eax
    27cb:	8b 5d fc             	mov    -0x4(%ebp),%ebx
    27ce:	c9                   	leave  
    27cf:	c3                   	ret    

000027d0 <__libc_csu_init>:
    27d0:	55                   	push   %ebp
    27d1:	57                   	push   %edi
    27d2:	56                   	push   %esi
    27d3:	53                   	push   %ebx
    27d4:	e8 a7 e3 ff ff       	call   b80 <__x86.get_pc_thunk.bx>
    27d9:	81 c3 27 28 00 00    	add    $0x2827,%ebx
    27df:	83 ec 0c             	sub    $0xc,%esp
    27e2:	8b 6c 24 20          	mov    0x20(%esp),%ebp
    27e6:	8d b3 e4 fe ff ff    	lea    -0x11c(%ebx),%esi
    27ec:	e8 1b e1 ff ff       	call   90c <_init>
    27f1:	8d 83 e0 fe ff ff    	lea    -0x120(%ebx),%eax
    27f7:	29 c6                	sub    %eax,%esi
    27f9:	c1 fe 02             	sar    $0x2,%esi
    27fc:	85 f6                	test   %esi,%esi
    27fe:	74 25                	je     2825 <__libc_csu_init+0x55>
    2800:	31 ff                	xor    %edi,%edi
    2802:	8d b6 00 00 00 00    	lea    0x0(%esi),%esi
    2808:	83 ec 04             	sub    $0x4,%esp
    280b:	ff 74 24 2c          	pushl  0x2c(%esp)
    280f:	ff 74 24 2c          	pushl  0x2c(%esp)
    2813:	55                   	push   %ebp
    2814:	ff 94 bb e0 fe ff ff 	call   *-0x120(%ebx,%edi,4)
    281b:	83 c7 01             	add    $0x1,%edi
    281e:	83 c4 10             	add    $0x10,%esp
    2821:	39 fe                	cmp    %edi,%esi
    2823:	75 e3                	jne    2808 <__libc_csu_init+0x38>
    2825:	83 c4 0c             	add    $0xc,%esp
    2828:	5b                   	pop    %ebx
    2829:	5e                   	pop    %esi
    282a:	5f                   	pop    %edi
    282b:	5d                   	pop    %ebp
    282c:	c3                   	ret    
    282d:	8d 76 00             	lea    0x0(%esi),%esi

00002830 <__libc_csu_fini>:
    2830:	f3 c3                	repz ret 

Disassembly of section .fini:

00002834 <_fini>:
    2834:	53                   	push   %ebx
    2835:	83 ec 08             	sub    $0x8,%esp
    2838:	e8 43 e3 ff ff       	call   b80 <__x86.get_pc_thunk.bx>
    283d:	81 c3 c3 27 00 00    	add    $0x27c3,%ebx
    2843:	83 c4 08             	add    $0x8,%esp
    2846:	5b                   	pop    %ebx
    2847:	c3                   	ret    
